

Microchip MPLAB XC8 Assembler V2.32 build 20210201212658 
                                                                                               Fri Dec 17 13:37:56 2021

Microchip MPLAB XC8 C Compiler v2.32 (Free license) build 20210201212658 Og1 
     1                           	processor	18F4520
     2                           	fnconf	rparam,??,?,0
     3                           	pagewidth 120
     4                           	opt	flic
     5                           	psect	idataCOMRAM,global,class=CODE,delta=1,noexec
     6                           	psect	idataBANK0,global,class=CODE,delta=1,noexec
     7                           	psect	smallconst,global,reloc=2,class=SMALLCONST,delta=1,noexec
     8                           	psect	cinit,global,reloc=2,class=CODE,delta=1
     9                           	psect	bssCOMRAM,global,class=COMRAM,space=1,delta=1,lowdata,noexec
    10                           	psect	dataCOMRAM,global,class=COMRAM,space=1,delta=1,lowdata,noexec
    11                           	psect	bssBANK0,global,class=BANK0,space=1,delta=1,lowdata,noexec
    12                           	psect	dataBANK0,global,class=BANK0,space=1,delta=1,lowdata,noexec
    13                           	psect	cstackBANK0,global,class=BANK0,space=1,delta=1,lowdata,noexec
    14                           	psect	cstackCOMRAM,global,class=COMRAM,space=1,delta=1,lowdata,noexec
    15                           	psect	text0,global,reloc=2,class=CODE,delta=1
    16                           	psect	text1,global,reloc=2,class=CODE,delta=1
    17                           	psect	text2,global,reloc=2,class=CODE,delta=1
    18                           	psect	text3,global,reloc=2,class=CODE,delta=1
    19                           	psect	text4,global,reloc=2,class=CODE,delta=1
    20                           	psect	text5,global,reloc=2,class=CODE,delta=1
    21                           	psect	text6,global,reloc=2,class=CODE,delta=1
    22                           	psect	text7,global,reloc=2,class=CODE,delta=1,group=1
    23                           	psect	text8,global,reloc=2,class=CODE,delta=1,group=1
    24                           	psect	text9,global,reloc=2,class=CODE,delta=1
    25                           	psect	text10,global,reloc=2,class=CODE,delta=1
    26                           	psect	text11,global,reloc=2,class=CODE,delta=1
    27                           	psect	text12,global,reloc=2,class=CODE,delta=1,group=1
    28                           	psect	text13,global,reloc=2,class=CODE,delta=1
    29                           	psect	text14,global,reloc=2,class=CODE,delta=1
    30                           	psect	text15,global,reloc=2,class=CODE,delta=1
    31                           	psect	text16,global,reloc=2,class=CODE,delta=1
    32                           	psect	text17,global,reloc=2,class=CODE,delta=1
    33                           	psect	text18,global,reloc=2,class=CODE,delta=1
    34                           	psect	text19,global,reloc=2,class=CODE,delta=1
    35                           	psect	text20,global,reloc=2,class=CODE,delta=1
    36                           	psect	text21,global,reloc=2,class=CODE,delta=1
    37                           	psect	text22,global,reloc=2,class=CODE,delta=1
    38                           	psect	text23,global,reloc=2,class=CODE,delta=1,group=1
    39                           	psect	text24,global,reloc=2,class=CODE,delta=1
    40                           	psect	text25,global,reloc=2,class=CODE,delta=1
    41                           	psect	text26,global,reloc=2,class=CODE,delta=1
    42                           	psect	text27,global,reloc=2,class=CODE,delta=1
    43                           	psect	text28,global,reloc=2,class=CODE,delta=1
    44                           	psect	text29,global,reloc=2,class=CODE,delta=1
    45                           	psect	text30,global,reloc=2,class=CODE,delta=1
    46                           	psect	text31,global,reloc=2,class=CODE,delta=1,group=1
    47                           	psect	text32,global,reloc=2,class=CODE,delta=1,group=1
    48                           	psect	text33,global,reloc=2,class=CODE,delta=1
    49                           	psect	text34,global,reloc=2,class=CODE,delta=1
    50                           	psect	text35,global,reloc=2,class=CODE,delta=1
    51                           	psect	text36,global,reloc=2,class=CODE,delta=1
    52                           	psect	text37,global,reloc=2,class=CODE,delta=1
    53                           	psect	text38,global,reloc=2,class=CODE,delta=1
    54                           	psect	text39,global,reloc=2,class=CODE,delta=1
    55                           	psect	text40,global,reloc=2,class=CODE,delta=1
    56                           	psect	text41,global,reloc=2,class=CODE,delta=1
    57                           	psect	text42,global,reloc=2,class=CODE,delta=1
    58                           	psect	text43,global,reloc=2,class=CODE,delta=1
    59                           	psect	text44,global,reloc=2,class=CODE,delta=1
    60                           	psect	text45,global,reloc=2,class=CODE,delta=1
    61                           	psect	text46,global,reloc=2,class=CODE,delta=1,group=1
    62                           	psect	text47,global,reloc=2,class=CODE,delta=1,group=1
    63                           	psect	text48,global,reloc=2,class=CODE,delta=1,group=1
    64                           	psect	text49,global,reloc=2,class=CODE,delta=1,group=1
    65                           	psect	text50,global,reloc=2,class=CODE,delta=1,group=1
    66                           	psect	text51,global,reloc=2,class=CODE,delta=1,group=1
    67                           	psect	text52,global,reloc=2,class=CODE,delta=1
    68                           	psect	text53,global,reloc=2,class=CODE,delta=1
    69                           	psect	intsave_regs,global,class=BIGRAM,space=1,delta=1,noexec
    70                           	psect	rparam,global,class=COMRAM,space=1,delta=1,noexec
    71                           	psect	idloc,global,abs,ovrld,class=IDLOC,space=5,delta=1,noexec
    72                           	psect	config,global,abs,ovrld,class=CONFIG,space=4,delta=1,noexec
    73  0000                     
    74                           ; Version 2.20
    75                           ; Generated 12/02/2020 GMT
    76                           ; 
    77                           ; Copyright © 2020, Microchip Technology Inc. and its subsidiaries ("Microchip")
    78                           ; All rights reserved.
    79                           ; 
    80                           ; This software is developed by Microchip Technology Inc. and its subsidiaries ("Microch
      +                          ip").
    81                           ; 
    82                           ; Redistribution and use in source and binary forms, with or without modification, are
    83                           ; permitted provided that the following conditions are met:
    84                           ; 
    85                           ;     1. Redistributions of source code must retain the above copyright notice, this lis
      +                          t of
    86                           ;        conditions and the following disclaimer.
    87                           ; 
    88                           ;     2. Redistributions in binary form must reproduce the above copyright notice, this 
      +                          list
    89                           ;        of conditions and the following disclaimer in the documentation and/or other
    90                           ;        materials provided with the distribution.
    91                           ; 
    92                           ;     3. Microchip's name may not be used to endorse or promote products derived from th
      +                          is
    93                           ;        software without specific prior written permission.
    94                           ; 
    95                           ; THIS SOFTWARE IS PROVIDED BY MICROCHIP "AS IS" AND ANY EXPRESS OR IMPLIED WARRANTIES,
    96                           ; INCLUDING, BUT NOT LIMITED TO, THE IMPLIED WARRANTIES OF MERCHANTABILITY AND FITNESS F
      +                          OR
    97                           ; PURPOSE ARE DISCLAIMED.  IN NO EVENT SHALL MICROCHIP BE LIABLE FOR ANY DIRECT, INDIREC
      +                          T,
    98                           ; INCIDENTAL, SPECIAL, EXEMPLARY, OR CONSEQUENTIAL DAMAGES (INCLUDING BUT NOT LIMITED TO
    99                           ; PROCUREMENT OF SUBSTITUTE GOODS OR SERVICES; LOSS OF USE, DATA OR PROFITS; OR BUSINESS
   100                           ; INTERRUPTION) HOWSOEVER CAUSED AND ON ANY THEORY OF LIABILITY, WHETHER IN CONTRACT, ST
      +                          RICT
   101                           ; LIABILITY, OR TORT (INCLUDING NEGLIGENCE OR OTHERWISE) ARISING IN ANY WAY OUT OF THE U
      +                          SE OF
   102                           ; THIS SOFTWARE, EVEN IF ADVISED OF THE POSSIBILITY OF SUCH DAMAGE.
   103                           ; 
   104                           ; 
   105                           ; Code-generator required, PIC18F4520 Definitions
   106                           ; 
   107                           ; SFR Addresses
   108  0000                     
   109                           	psect	idataCOMRAM
   110  003A60                     __pidataCOMRAM:
   111                           	callstack 0
   112                           
   113                           ;initializer for _prt
   114  003A60  01                 	db	1
   115                           
   116                           ;initializer for _conf
   117  003A61  01                 	db	1
   118                           
   119                           	psect	idataBANK0
   120  003A54                     __pidataBANK0:
   121                           	callstack 0
   122                           
   123                           ;initializer for _tp
   124  003A54  3C                 	db	60
   125  003A55  46                 	db	70
   126  003A56  48                 	db	72
   127  003A57  61                 	db	97
   128                           
   129                           ;initializer for _pC
   130  003A58  20                 	db	32
   131  003A59  20                 	db	32
   132  003A5A  20                 	db	32
   133  003A5B  20                 	db	32
   134                           
   135                           ;initializer for _p
   136  003A5C  1E                 	db	30
   137  003A5D  1C                 	db	28
   138  003A5E  14                 	db	20
   139  003A5F  2D                 	db	45
   140                           
   141                           	psect	smallconst
   142  000600                     __psmallconst:
   143                           	callstack 0
   144  000600  00                 	db	0
   145  000601                     _valor:
   146                           	callstack 0
   147  000601  00                 	db	0
   148  000602  76                 	db	118
   149  000603  79                 	db	121
   150  000604  77                 	db	119
   151  000605  78                 	db	120
   152  000606  66                 	db	102
   153  000607  6D                 	db	109
   154  000608  7D                 	db	125
   155  000609  07                 	db	7
   156  00060A  7F                 	db	127
   157  00060B  77                 	db	119
   158  00060C  7C                 	db	124
   159  00060D  39                 	db	57
   160  00060E  5E                 	db	94
   161  00060F  79                 	db	121
   162  000610  71                 	db	113
   163  000611                     __end_of_valor:
   164                           	callstack 0
   165  000611                     _charKey:
   166                           	callstack 0
   167  000611  55                 	db	85
   168  000612  4C                 	db	76
   169  000613  44                 	db	68
   170  000614  52                 	db	82
   171  000615  53                 	db	83
   172  000616  58                 	db	88
   173  000617  41                 	db	65
   174  000618  42                 	db	66
   175  000619  59                 	db	89
   176  00061A  73                 	db	115
   177  00061B                     __end_of_charKey:
   178                           	callstack 0
   179  0000                     _T2CON	set	4042
   180  0000                     _CCP2CON	set	4026
   181  0000                     _CCPR2L	set	4027
   182  0000                     _PR2	set	4043
   183  0000                     _ADRESL	set	4035
   184  0000                     _ADRESH	set	4036
   185  0000                     _ADCON2	set	4032
   186  0000                     _ADCON0	set	4034
   187  0000                     _ADCON1	set	4033
   188  0000                     _TRISE	set	3990
   189  0000                     _TRISD	set	3989
   190  0000                     _TRISC	set	3988
   191  0000                     _TRISB	set	3987
   192  0000                     _TRISA	set	3986
   193  0000                     _PORTE	set	3972
   194  0000                     _PORTD	set	3971
   195  0000                     _PORTC	set	3970
   196  0000                     _PORTB	set	3969
   197  0000                     _PORTA	set	3968
   198  00061B                     STR_2:
   199  00061B  70                 	db	112	;'p'
   200  00061C  61                 	db	97	;'a'
   201  00061D  72                 	db	114	;'r'
   202  00061E  61                 	db	97	;'a'
   203  00061F  20                 	db	32
   204  000620  63                 	db	99	;'c'
   205  000621  6F                 	db	111	;'o'
   206  000622  6E                 	db	110	;'n'
   207  000623  66                 	db	102	;'f'
   208  000624  69                 	db	105	;'i'
   209  000625  67                 	db	103	;'g'
   210  000626  75                 	db	117	;'u'
   211  000627  72                 	db	114	;'r'
   212  000628  61                 	db	97	;'a'
   213  000629  72                 	db	114	;'r'
   214  00062A  21                 	db	33
   215  00062B  00                 	db	0
   216  00062C                     STR_3:
   217  00062C  41                 	db	65	;'A'
   218  00062D  70                 	db	112	;'p'
   219  00062E  65                 	db	101	;'e'
   220  00062F  72                 	db	114	;'r'
   221  000630  74                 	db	116	;'t'
   222  000631  65                 	db	101	;'e'
   223  000632  20                 	db	32
   224  000633  53                 	db	83	;'S'
   225  000634  20                 	db	32
   226  000635  70                 	db	112	;'p'
   227  000636  2F                 	db	47
   228  000637  20                 	db	32
   229  000638  73                 	db	115	;'s'
   230  000639  61                 	db	97	;'a'
   231  00063A  69                 	db	105	;'i'
   232  00063B  72                 	db	114	;'r'
   233  00063C  00                 	db	0
   234  00063D                     STR_1:
   235  00063D  41                 	db	65	;'A'
   236  00063E  70                 	db	112	;'p'
   237  00063F  65                 	db	101	;'e'
   238  000640  72                 	db	114	;'r'
   239  000641  74                 	db	116	;'t'
   240  000642  65                 	db	101	;'e'
   241  000643  20                 	db	32
   242  000644  6F                 	db	111	;'o'
   243  000645  20                 	db	32
   244  000646  62                 	db	98	;'b'
   245  000647  6F                 	db	111	;'o'
   246  000648  74                 	db	116	;'t'
   247  000649  61                 	db	97	;'a'
   248  00064A  6F                 	db	111	;'o'
   249  00064B  20                 	db	32
   250  00064C  73                 	db	115	;'s'
   251  00064D  00                 	db	0
   252  00064E                     STR_10:
   253  00064E  20                 	db	32
   254  00064F  54                 	db	84	;'T'
   255  000650  65                 	db	101	;'e'
   256  000651  6D                 	db	109	;'m'
   257  000652  70                 	db	112	;'p'
   258  000653  20                 	db	32
   259  000654  6D                 	db	109	;'m'
   260  000655  61                 	db	97	;'a'
   261  000656  78                 	db	120	;'x'
   262  000657  3A                 	db	58	;':'
   263  000658  20                 	db	32
   264  000659  00                 	db	0
   265  00065A                     STR_14:
   266  00065A  20                 	db	32
   267  00065B  54                 	db	84	;'T'
   268  00065C  65                 	db	101	;'e'
   269  00065D  6D                 	db	109	;'m'
   270  00065E  70                 	db	112	;'p'
   271  00065F  2E                 	db	46
   272  000660  3A                 	db	58	;':'
   273  000661  00                 	db	0
   274  000662                     STR_17:
   275  000662  20                 	db	32
   276  000663  20                 	db	32
   277  000664  20                 	db	32
   278  000665  20                 	db	32
   279  000666  50                 	db	80	;'P'
   280  000667  32                 	db	50	;'2'
   281  000668  3A                 	db	58	;':'
   282  000669  00                 	db	0
   283  00066A                     STR_21:
   284  00066A  20                 	db	32
   285  00066B  20                 	db	32
   286  00066C  20                 	db	32
   287  00066D  20                 	db	32
   288  00066E  54                 	db	84	;'T'
   289  00066F  32                 	db	50	;'2'
   290  000670  3A                 	db	58	;':'
   291  000671  00                 	db	0
   292  000672                     STR_19:
   293  000672  20                 	db	32
   294  000673  20                 	db	32
   295  000674  20                 	db	32
   296  000675  20                 	db	32
   297  000676  50                 	db	80	;'P'
   298  000677  34                 	db	52	;'4'
   299  000678  3A                 	db	58	;':'
   300  000679  00                 	db	0
   301  00067A                     STR_23:
   302  00067A  20                 	db	32
   303  00067B  20                 	db	32
   304  00067C  20                 	db	32
   305  00067D  20                 	db	32
   306  00067E  54                 	db	84	;'T'
   307  00067F  34                 	db	52	;'4'
   308  000680  3A                 	db	58	;':'
   309  000681  00                 	db	0
   310  000682                     STR_12:
   311  000682  20                 	db	32
   312  000683  50                 	db	80	;'P'
   313  000684  72                 	db	114	;'r'
   314  000685  65                 	db	101	;'e'
   315  000686  73                 	db	115	;'s'
   316  000687  3A                 	db	58	;':'
   317  000688  00                 	db	0
   318  000689                     STR_4:
   319  000689  50                 	db	80	;'P'
   320  00068A  6E                 	db	110	;'n'
   321  00068B  65                 	db	101	;'e'
   322  00068C  75                 	db	117	;'u'
   323  00068D  20                 	db	32
   324  00068E  00                 	db	0
   325  00068F                     STR_6:
   326  00068F  50                 	db	80	;'P'
   327  000690  72                 	db	114	;'r'
   328  000691  65                 	db	101	;'e'
   329  000692  76                 	db	118	;'v'
   330  000693  2E                 	db	46
   331  000694  00                 	db	0
   332  000695                     STR_7:
   333  000695  4E                 	db	78	;'N'
   334  000696  65                 	db	101	;'e'
   335  000697  78                 	db	120	;'x'
   336  000698  74                 	db	116	;'t'
   337  000699  00                 	db	0
   338  00069A                     STR_16:
   339  00069A  50                 	db	80	;'P'
   340  00069B  31                 	db	49	;'1'
   341  00069C  3A                 	db	58	;':'
   342  00069D  00                 	db	0
   343  00069E                     STR_20:
   344  00069E  54                 	db	84	;'T'
   345  00069F  31                 	db	49	;'1'
   346  0006A0  3A                 	db	58	;':'
   347  0006A1  00                 	db	0
   348  0006A2                     STR_18:
   349  0006A2  50                 	db	80	;'P'
   350  0006A3  33                 	db	51	;'3'
   351  0006A4  3A                 	db	58	;':'
   352  0006A5  00                 	db	0
   353  0006A6                     STR_22:
   354  0006A6  54                 	db	84	;'T'
   355  0006A7  33                 	db	51	;'3'
   356  0006A8  3A                 	db	58	;':'
   357  0006A9  00                 	db	0
   358  0006AA                     STR_13:
   359  0006AA  50                 	db	80	;'P'
   360  0006AB  53                 	db	83	;'S'
   361  0006AC  49                 	db	73	;'I'
   362  0006AD  00                 	db	0
   363  0006AE                     STR_11:
   364  0006AE  20                 	db	32
   365  0006AF  50                 	db	80	;'P'
   366  0006B0  00                 	db	0
   367  0006B1                     STR_15:
   368  0006B1  43                 	db	67	;'C'
   369  0006B2  00                 	db	0
   370  0006B3                     STR_8:
   371  0006B3  4C                 	db	76	;'L'
   372  0006B4  00                 	db	0
   373  0006B5                     STR_9:
   374  0006B5  52                 	db	82	;'R'
   375  0006B6  00                 	db	0
   376  0006B7  00                 	db	0	; dummy byte at the end
   377  0000                     
   378                           ; #config settings
   379                           
   380                           	psect	cinit
   381  00348C                     __pcinit:
   382                           	callstack 0
   383  00348C                     start_initialization:
   384                           	callstack 0
   385  00348C                     __initialization:
   386                           	callstack 0
   387                           
   388                           ; Initialize objects allocated to BANK0 (12 bytes)
   389                           ; load TBLPTR registers with __pidataBANK0
   390  00348C  0E54               	movlw	low __pidataBANK0
   391  00348E  6EF6               	movwf	tblptrl,c
   392  003490  0E3A               	movlw	high __pidataBANK0
   393  003492  6EF7               	movwf	tblptrh,c
   394  003494  0E00               	movlw	low (__pidataBANK0 shr (0+16))
   395  003496  6EF8               	movwf	tblptru,c
   396  003498  EE00  F0A8         	lfsr	0,__pdataBANK0
   397  00349C  EE10 F00C          	lfsr	1,12
   398  0034A0                     copy_data0:
   399  0034A0  0009               	tblrd		*+
   400  0034A2  CFF5 FFEE          	movff	tablat,postinc0
   401  0034A6  50E5               	movf	postdec1,w,c
   402  0034A8  50E1               	movf	fsr1l,w,c
   403  0034AA  E1FA               	bnz	copy_data0
   404                           
   405                           ; Initialize objects allocated to COMRAM (2 bytes)
   406                           ; load TBLPTR registers with __pidataCOMRAM
   407  0034AC  0E60               	movlw	low __pidataCOMRAM
   408  0034AE  6EF6               	movwf	tblptrl,c
   409  0034B0  0E3A               	movlw	high __pidataCOMRAM
   410  0034B2  6EF7               	movwf	tblptrh,c
   411  0034B4  0E00               	movlw	low (__pidataCOMRAM shr (0+16))
   412  0034B6  6EF8               	movwf	tblptru,c
   413  0034B8  0009               	tblrd		*+	;fetch initializer
   414  0034BA  CFF5 F07E          	movff	tablat,__pdataCOMRAM
   415  0034BE  0009               	tblrd		*+	;fetch initializer
   416  0034C0  CFF5 F07F          	movff	tablat,__pdataCOMRAM+1
   417                           
   418                           ; Clear objects allocated to BANK0 (12 bytes)
   419  0034C4  EE00  F09C         	lfsr	0,__pbssBANK0
   420  0034C8  0E0C               	movlw	12
   421  0034CA                     clear_0:
   422  0034CA  6AEE               	clrf	postinc0,c
   423  0034CC  06E8               	decf	wreg,f,c
   424  0034CE  E1FD               	bnz	clear_0
   425                           
   426                           ; Clear objects allocated to COMRAM (14 bytes)
   427  0034D0  EE00  F070         	lfsr	0,__pbssCOMRAM
   428  0034D4  0E0E               	movlw	14
   429  0034D6                     clear_1:
   430  0034D6  6AEE               	clrf	postinc0,c
   431  0034D8  06E8               	decf	wreg,f,c
   432  0034DA  E1FD               	bnz	clear_1
   433  0034DC                     end_of_initialization:
   434                           	callstack 0
   435  0034DC                     __end_of__initialization:
   436                           	callstack 0
   437  0034DC  0E00               	movlw	low (__Lmediumconst shr (0+16))
   438  0034DE  6EF8               	movwf	tblptru,c
   439  0034E0  0100               	movlb	0
   440  0034E2  EF24  F012         	goto	_main	;jump to C main() function
   441                           
   442                           	psect	bssCOMRAM
   443  000070                     __pbssCOMRAM:
   444                           	callstack 0
   445  000070                     _v3:
   446                           	callstack 0
   447  000070                     	ds	1
   448  000071                     _v2:
   449                           	callstack 0
   450  000071                     	ds	1
   451  000072                     _v1:
   452                           	callstack 0
   453  000072                     	ds	1
   454  000073                     _v0:
   455                           	callstack 0
   456  000073                     	ds	1
   457  000074                     _display:
   458                           	callstack 0
   459  000074                     	ds	1
   460  000075                     kpDebounce@tempo:
   461                           	callstack 0
   462  000075                     	ds	1
   463  000076                     _tblock:
   464                           	callstack 0
   465  000076                     	ds	1
   466  000077                     _tpG:
   467                           	callstack 0
   468  000077                     	ds	1
   469  000078                     _pG:
   470                           	callstack 0
   471  000078                     	ds	1
   472  000079                     _block:
   473                           	callstack 0
   474  000079                     	ds	1
   475  00007A                     _b2:
   476                           	callstack 0
   477  00007A                     	ds	1
   478  00007B                     _buff:
   479                           	callstack 0
   480  00007B                     	ds	1
   481  00007C                     _num:
   482                           	callstack 0
   483  00007C                     	ds	1
   484  00007D                     _tecla:
   485                           	callstack 0
   486  00007D                     	ds	1
   487                           
   488                           	psect	dataCOMRAM
   489  00007E                     __pdataCOMRAM:
   490                           	callstack 0
   491  00007E                     _prt:
   492                           	callstack 0
   493  00007E                     	ds	1
   494  00007F                     _conf:
   495                           	callstack 0
   496  00007F                     	ds	1
   497                           
   498                           	psect	bssBANK0
   499  00009C                     __pbssBANK0:
   500                           	callstack 0
   501  00009C                     kpDebounce@oldRead:
   502                           	callstack 0
   503  00009C                     	ds	2
   504  00009E                     kpDebounce@newRead:
   505                           	callstack 0
   506  00009E                     	ds	2
   507  0000A0                     _keys:
   508                           	callstack 0
   509  0000A0                     	ds	2
   510  0000A2                     _tol:
   511                           	callstack 0
   512  0000A2                     	ds	2
   513  0000A4                     _pot1:
   514                           	callstack 0
   515  0000A4                     	ds	2
   516  0000A6                     _pot:
   517                           	callstack 0
   518  0000A6                     	ds	2
   519                           
   520                           	psect	dataBANK0
   521  0000A8                     __pdataBANK0:
   522                           	callstack 0
   523  0000A8                     _tp:
   524                           	callstack 0
   525  0000A8                     	ds	4
   526  0000AC                     _pC:
   527                           	callstack 0
   528  0000AC                     	ds	4
   529  0000B0                     _p:
   530                           	callstack 0
   531  0000B0                     	ds	4
   532                           
   533                           	psect	cstackBANK0
   534  000080                     __pcstackBANK0:
   535                           	callstack 0
   536  000080                     _comandos$192:
   537                           	callstack 0
   538                           
   539                           ; 2 bytes @ 0x0
   540  000080                     	ds	2
   541  000082                     _comandos$193:
   542                           	callstack 0
   543                           
   544                           ; 2 bytes @ 0x2
   545  000082                     	ds	2
   546  000084                     _comandos$196:
   547                           	callstack 0
   548                           
   549                           ; 2 bytes @ 0x4
   550  000084                     	ds	2
   551  000086                     _comandos$197:
   552                           	callstack 0
   553                           
   554                           ; 2 bytes @ 0x6
   555  000086                     	ds	2
   556  000088                     comandos@i:
   557                           	callstack 0
   558                           
   559                           ; 2 bytes @ 0x8
   560  000088                     	ds	2
   561  00008A                     comandos@j:
   562                           	callstack 0
   563                           
   564                           ; 2 bytes @ 0xA
   565  00008A                     	ds	2
   566  00008C                     comandos@i_188:
   567                           	callstack 0
   568                           
   569                           ; 2 bytes @ 0xC
   570  00008C                     	ds	2
   571  00008E                     comandos@j_189:
   572                           	callstack 0
   573                           
   574                           ; 2 bytes @ 0xE
   575  00008E                     	ds	2
   576  000090                     comandos@i_190:
   577                           	callstack 0
   578                           
   579                           ; 2 bytes @ 0x10
   580  000090                     	ds	2
   581  000092                     comandos@j_191:
   582                           	callstack 0
   583                           
   584                           ; 2 bytes @ 0x12
   585  000092                     	ds	2
   586  000094                     comandos@i_194:
   587                           	callstack 0
   588                           
   589                           ; 2 bytes @ 0x14
   590  000094                     	ds	2
   591  000096                     comandos@j_195:
   592                           	callstack 0
   593                           
   594                           ; 2 bytes @ 0x16
   595  000096                     	ds	2
   596  000098                     comandos@i_198:
   597                           	callstack 0
   598                           
   599                           ; 2 bytes @ 0x18
   600  000098                     	ds	2
   601  00009A                     comandos@j_199:
   602                           	callstack 0
   603                           
   604                           ; 2 bytes @ 0x1A
   605  00009A                     	ds	2
   606                           
   607                           	psect	cstackCOMRAM
   608  000001                     __pcstackCOMRAM:
   609                           	callstack 0
   610  000001                     ??_kpReadKey:
   611  000001                     ?_adcRead:
   612                           	callstack 0
   613  000001                     ?_digitalRead:
   614                           	callstack 0
   615  000001                     ?___wmul:
   616                           	callstack 0
   617  000001                     ?___awdiv:
   618                           	callstack 0
   619  000001                     ?___lwdiv:
   620                           	callstack 0
   621  000001                     ?___aldiv:
   622                           	callstack 0
   623  000001                     ?___xxtofl:
   624                           	callstack 0
   625  000001                     ssdDigit@pos:
   626                           	callstack 0
   627  000001                     digitalWrite@pin:
   628                           	callstack 0
   629  000001                     digitalRead@pin:
   630                           	callstack 0
   631  000001                     pinMode@pin:
   632                           	callstack 0
   633  000001                     delayMicro@a:
   634                           	callstack 0
   635  000001                     delayMili@a:
   636                           	callstack 0
   637  000001                     adcRead@channel:
   638                           	callstack 0
   639  000001                     ___wmul@multiplier:
   640                           	callstack 0
   641  000001                     ___awdiv@dividend:
   642                           	callstack 0
   643  000001                     ___lwdiv@dividend:
   644                           	callstack 0
   645  000001                     ___aldiv@dividend:
   646                           	callstack 0
   647  000001                     ___xxtofl@val:
   648                           	callstack 0
   649                           
   650                           ; 4 bytes @ 0x0
   651  000001                     	ds	1
   652  000002                     ssdDigit@val:
   653                           	callstack 0
   654                           
   655                           ; 1 bytes @ 0x1
   656  000002                     	ds	1
   657  000003                     ??_digitalRead:
   658  000003                     ??_delayMili:
   659  000003                     digitalWrite@value:
   660                           	callstack 0
   661  000003                     pinMode@type:
   662                           	callstack 0
   663  000003                     adcRead@ADvalor:
   664                           	callstack 0
   665  000003                     ___wmul@multiplicand:
   666                           	callstack 0
   667  000003                     ___awdiv@divisor:
   668                           	callstack 0
   669  000003                     ___lwdiv@divisor:
   670                           	callstack 0
   671                           
   672                           ; 2 bytes @ 0x2
   673  000003                     	ds	1
   674  000004                     kpReadKey@i:
   675                           	callstack 0
   676  000004                     delayMili@i:
   677                           	callstack 0
   678                           
   679                           ; 2 bytes @ 0x3
   680  000004                     	ds	1
   681  000005                     ??_digitalWrite:
   682  000005                     ??_pinMode:
   683  000005                     ??___xxtofl:
   684  000005                     ___awdiv@counter:
   685                           	callstack 0
   686  000005                     ___wmul@product:
   687                           	callstack 0
   688  000005                     ___lwdiv@quotient:
   689                           	callstack 0
   690  000005                     ___aldiv@divisor:
   691                           	callstack 0
   692                           
   693                           ; 4 bytes @ 0x4
   694  000005                     	ds	1
   695  000006                     ___awdiv@sign:
   696                           	callstack 0
   697                           
   698                           ; 1 bytes @ 0x5
   699  000006                     	ds	1
   700  000007                     ___lwdiv@counter:
   701                           	callstack 0
   702  000007                     rgbColor@led:
   703                           	callstack 0
   704  000007                     soWrite@value:
   705                           	callstack 0
   706  000007                     ___awdiv@quotient:
   707                           	callstack 0
   708                           
   709                           ; 2 bytes @ 0x6
   710  000007                     	ds	1
   711  000008                     ??_pwmSet:
   712                           
   713                           ; 1 bytes @ 0x7
   714  000008                     	ds	1
   715  000009                     ??_infoGeral:
   716  000009                     ?___awmod:
   717                           	callstack 0
   718  000009                     soWrite@i:
   719                           	callstack 0
   720  000009                     ___aldiv@counter:
   721                           	callstack 0
   722  000009                     ___xxtofl@sign:
   723                           	callstack 0
   724  000009                     ___awmod@dividend:
   725                           	callstack 0
   726                           
   727                           ; 2 bytes @ 0x8
   728  000009                     	ds	1
   729  00000A                     ??_kpDebounce:
   730  00000A                     ??_ssdUpdate:
   731  00000A                     pwmSet@porcento:
   732                           	callstack 0
   733  00000A                     ___aldiv@sign:
   734                           	callstack 0
   735  00000A                     ___xxtofl@exp:
   736                           	callstack 0
   737  00000A                     pushNibble@rs:
   738                           	callstack 0
   739  00000A                     pushByte@rs:
   740                           	callstack 0
   741                           
   742                           ; 2 bytes @ 0x9
   743  00000A                     	ds	1
   744  00000B                     pwmSet@val:
   745                           	callstack 0
   746  00000B                     ___awmod@divisor:
   747                           	callstack 0
   748  00000B                     ___aldiv@quotient:
   749                           	callstack 0
   750  00000B                     ___xxtofl@arg:
   751                           	callstack 0
   752                           
   753                           ; 4 bytes @ 0xA
   754  00000B                     	ds	1
   755  00000C                     ??_pushByte:
   756  00000C                     pushNibble@value:
   757                           	callstack 0
   758                           
   759                           ; 1 bytes @ 0xB
   760  00000C                     	ds	1
   761  00000D                     pushByte@value:
   762                           	callstack 0
   763  00000D                     ___awmod@counter:
   764                           	callstack 0
   765  00000D                     kpDebounce@i:
   766                           	callstack 0
   767                           
   768                           ; 2 bytes @ 0xC
   769  00000D                     	ds	1
   770  00000E                     lcdCommand@value:
   771                           	callstack 0
   772  00000E                     lcdChar@value:
   773                           	callstack 0
   774  00000E                     ___awmod@sign:
   775                           	callstack 0
   776                           
   777                           ; 1 bytes @ 0xD
   778  00000E                     	ds	1
   779  00000F                     ?___fldiv:
   780                           	callstack 0
   781  00000F                     lcdPosition@line:
   782                           	callstack 0
   783  00000F                     lcdString@msg:
   784                           	callstack 0
   785  00000F                     lcdNumberUnit@value:
   786                           	callstack 0
   787  00000F                     pwmFrequency@freq:
   788                           	callstack 0
   789  00000F                     ___fldiv@b:
   790                           	callstack 0
   791                           
   792                           ; 4 bytes @ 0xE
   793  00000F                     	ds	2
   794  000011                     ??_lcdString:
   795  000011                     lcdPosition@col:
   796                           	callstack 0
   797  000011                     lcdNumberUnit@i:
   798                           	callstack 0
   799                           
   800                           ; 2 bytes @ 0x10
   801  000011                     	ds	2
   802  000013                     lcdString@i:
   803                           	callstack 0
   804  000013                     ___fldiv@a:
   805                           	callstack 0
   806                           
   807                           ; 4 bytes @ 0x12
   808  000013                     	ds	2
   809  000015                     instrucaoLCD@i:
   810                           	callstack 0
   811                           
   812                           ; 2 bytes @ 0x14
   813  000015                     	ds	2
   814  000017                     ??___fldiv:
   815  000017                     instrucaoLCD@j:
   816                           	callstack 0
   817                           
   818                           ; 2 bytes @ 0x16
   819  000017                     	ds	4
   820  00001B                     ___fldiv@rem:
   821                           	callstack 0
   822                           
   823                           ; 4 bytes @ 0x1A
   824  00001B                     	ds	4
   825  00001F                     ___fldiv@sign:
   826                           	callstack 0
   827                           
   828                           ; 1 bytes @ 0x1E
   829  00001F                     	ds	1
   830  000020                     ___fldiv@new_exp:
   831                           	callstack 0
   832                           
   833                           ; 2 bytes @ 0x1F
   834  000020                     	ds	2
   835  000022                     ___fldiv@grs:
   836                           	callstack 0
   837                           
   838                           ; 4 bytes @ 0x21
   839  000022                     	ds	4
   840  000026                     ___fldiv@bexp:
   841                           	callstack 0
   842                           
   843                           ; 1 bytes @ 0x25
   844  000026                     	ds	1
   845  000027                     ___fldiv@aexp:
   846                           	callstack 0
   847                           
   848                           ; 1 bytes @ 0x26
   849  000027                     	ds	1
   850  000028                     ?___fladd:
   851                           	callstack 0
   852  000028                     ___fladd@b:
   853                           	callstack 0
   854                           
   855                           ; 4 bytes @ 0x27
   856  000028                     	ds	4
   857  00002C                     ___fladd@a:
   858                           	callstack 0
   859                           
   860                           ; 4 bytes @ 0x2B
   861  00002C                     	ds	4
   862  000030                     ??___fladd:
   863                           
   864                           ; 1 bytes @ 0x2F
   865  000030                     	ds	4
   866  000034                     ___fladd@signs:
   867                           	callstack 0
   868                           
   869                           ; 1 bytes @ 0x33
   870  000034                     	ds	1
   871  000035                     ___fladd@aexp:
   872                           	callstack 0
   873                           
   874                           ; 1 bytes @ 0x34
   875  000035                     	ds	1
   876  000036                     ___fladd@bexp:
   877                           	callstack 0
   878                           
   879                           ; 1 bytes @ 0x35
   880  000036                     	ds	1
   881  000037                     ___fladd@grs:
   882                           	callstack 0
   883                           
   884                           ; 1 bytes @ 0x36
   885  000037                     	ds	1
   886  000038                     ?___flmul:
   887                           	callstack 0
   888  000038                     ___flmul@b:
   889                           	callstack 0
   890                           
   891                           ; 4 bytes @ 0x37
   892  000038                     	ds	4
   893  00003C                     ___flmul@a:
   894                           	callstack 0
   895                           
   896                           ; 4 bytes @ 0x3B
   897  00003C                     	ds	4
   898  000040                     ??___flmul:
   899                           
   900                           ; 1 bytes @ 0x3F
   901  000040                     	ds	4
   902  000044                     ___flmul@sign:
   903                           	callstack 0
   904                           
   905                           ; 1 bytes @ 0x43
   906  000044                     	ds	1
   907  000045                     ___flmul@grs:
   908                           	callstack 0
   909                           
   910                           ; 4 bytes @ 0x44
   911  000045                     	ds	4
   912  000049                     ___flmul@aexp:
   913                           	callstack 0
   914                           
   915                           ; 1 bytes @ 0x48
   916  000049                     	ds	1
   917  00004A                     ___flmul@bexp:
   918                           	callstack 0
   919                           
   920                           ; 1 bytes @ 0x49
   921  00004A                     	ds	1
   922  00004B                     ___flmul@prod:
   923                           	callstack 0
   924                           
   925                           ; 4 bytes @ 0x4A
   926  00004B                     	ds	4
   927  00004F                     ___flmul@temp:
   928                           	callstack 0
   929                           
   930                           ; 2 bytes @ 0x4E
   931  00004F                     	ds	2
   932  000051                     ?___flsub:
   933                           	callstack 0
   934  000051                     ___flge@ff1:
   935                           	callstack 0
   936  000051                     ___flsub@b:
   937                           	callstack 0
   938                           
   939                           ; 4 bytes @ 0x50
   940  000051                     	ds	4
   941  000055                     ___flge@ff2:
   942                           	callstack 0
   943  000055                     ___flsub@a:
   944                           	callstack 0
   945                           
   946                           ; 4 bytes @ 0x54
   947  000055                     	ds	4
   948  000059                     ??___flge:
   949  000059                     ?___fltol:
   950                           	callstack 0
   951  000059                     ___fltol@f1:
   952                           	callstack 0
   953                           
   954                           ; 4 bytes @ 0x58
   955  000059                     	ds	4
   956  00005D                     ??___fltol:
   957                           
   958                           ; 1 bytes @ 0x5C
   959  00005D                     	ds	4
   960  000061                     ___fltol@sign1:
   961                           	callstack 0
   962                           
   963                           ; 1 bytes @ 0x60
   964  000061                     	ds	1
   965  000062                     ___fltol@exp1:
   966                           	callstack 0
   967                           
   968                           ; 1 bytes @ 0x61
   969  000062                     	ds	1
   970  000063                     lcdNumber@value:
   971                           	callstack 0
   972                           
   973                           ; 2 bytes @ 0x62
   974  000063                     	ds	1
   975  000064                     ssdHeat@i:
   976                           	callstack 0
   977                           
   978                           ; 2 bytes @ 0x63
   979  000064                     	ds	1
   980  000065                     lcdNumber@i:
   981                           	callstack 0
   982                           
   983                           ; 2 bytes @ 0x64
   984  000065                     	ds	1
   985  000066                     ssdHeat@j:
   986                           	callstack 0
   987                           
   988                           ; 2 bytes @ 0x65
   989  000066                     	ds	1
   990  000067                     ??_configuraPSI:
   991  000067                     ??_infoIndividual:
   992  000067                     
   993                           ; 1 bytes @ 0x66
   994  000067                     	ds	1
   995  000068                     ssdHeat@i_220:
   996                           	callstack 0
   997                           
   998                           ; 2 bytes @ 0x67
   999  000068                     	ds	2
  1000  00006A                     ssdHeat@j_221:
  1001                           	callstack 0
  1002                           
  1003                           ; 2 bytes @ 0x69
  1004  00006A                     	ds	2
  1005  00006C                     main@i:
  1006                           	callstack 0
  1007                           
  1008                           ; 2 bytes @ 0x6B
  1009  00006C                     	ds	2
  1010  00006E                     main@j:
  1011                           	callstack 0
  1012                           
  1013                           ; 2 bytes @ 0x6D
  1014  00006E                     	ds	2
  1015                           
  1016 ;;
  1017 ;;Main: autosize = 0, tempsize = 0, incstack = 0, save=0
  1018 ;;
  1019 ;; *************** function _main *****************
  1020 ;; Defined at:
  1021 ;;		line 25 in file "main.c"
  1022 ;; Parameters:    Size  Location     Type
  1023 ;;		None
  1024 ;; Auto vars:     Size  Location     Type
  1025 ;;  j               2  109[COMRAM] int 
  1026 ;;  i               2  107[COMRAM] int 
  1027 ;; Return value:  Size  Location     Type
  1028 ;;                  1    wreg      void 
  1029 ;; Registers used:
  1030 ;;		wreg, fsr1l, fsr1h, fsr2l, fsr2h, status,2, status,0, tblptrl, tblptrh, tblptru, prodl, prodh, cstack
  1031 ;; Tracked objects:
  1032 ;;		On entry : 0/0
  1033 ;;		On exit  : 0/0
  1034 ;;		Unchanged: 0/0
  1035 ;; Data sizes:     COMRAM   BANK0   BANK1   BANK2   BANK3   BANK4   BANK5
  1036 ;;      Params:         0       0       0       0       0       0       0
  1037 ;;      Locals:         4       0       0       0       0       0       0
  1038 ;;      Temps:          0       0       0       0       0       0       0
  1039 ;;      Totals:         4       0       0       0       0       0       0
  1040 ;;Total ram usage:        4 bytes
  1041 ;; Hardware stack levels required when called: 8
  1042 ;; This function calls:
  1043 ;;		_adcInit
  1044 ;;		_comandos
  1045 ;;		_configuraPSI
  1046 ;;		_infoIndividual
  1047 ;;		_infoPress
  1048 ;;		_infoTemp
  1049 ;;		_instrucaoLCD
  1050 ;;		_kpDebounce
  1051 ;;		_kpInit
  1052 ;;		_kpReadKey
  1053 ;;		_lcdCommand
  1054 ;;		_lcdInit
  1055 ;;		_lcdPosition
  1056 ;;		_lcdString
  1057 ;;		_pwmInit
  1058 ;;		_rgbInit
  1059 ;;		_ssdHeat
  1060 ;;		_ssdInit
  1061 ;;		_teste
  1062 ;; This function is called by:
  1063 ;;		Startup code after reset
  1064 ;; This function uses a non-reentrant model
  1065 ;;
  1066                           
  1067                           	psect	text0
  1068  002448                     __ptext0:
  1069                           	callstack 0
  1070  002448                     _main:
  1071                           	callstack 23
  1072  002448                     
  1073                           ;main.c: 27:     rgbInit();
  1074  002448  ECD9  F01B         	call	_rgbInit	;wreg free
  1075                           
  1076                           ;main.c: 28:     ssdInit();
  1077  00244C  ECCC  F01A         	call	_ssdInit	;wreg free
  1078                           
  1079                           ;main.c: 29:     kpInit();
  1080  002450  EC6B  F01C         	call	_kpInit	;wreg free
  1081                           
  1082                           ;main.c: 30:     lcdInit();
  1083  002454  ECB7  F017         	call	_lcdInit	;wreg free
  1084                           
  1085                           ;main.c: 31:     adcInit();
  1086  002458  EC71  F01B         	call	_adcInit	;wreg free
  1087                           
  1088                           ;main.c: 32:     pwmInit();
  1089  00245C  EC1D  F01D         	call	_pwmInit	;wreg free
  1090  002460                     
  1091                           ;main.c: 34:     lcdString("Aperte o botao s");
  1092  002460  0E3D               	movlw	low STR_1
  1093  002462  6E0F               	movwf	lcdString@msg^0,c
  1094  002464  0E06               	movlw	high STR_1
  1095  002466  6E10               	movwf	(lcdString@msg+1)^0,c
  1096  002468  ECF7  F01A         	call	_lcdString	;wreg free
  1097  00246C                     
  1098                           ;main.c: 35:     lcdPosition(1,0);
  1099  00246C  0E00               	movlw	0
  1100  00246E  6E10               	movwf	(lcdPosition@line+1)^0,c
  1101  002470  0E01               	movlw	1
  1102  002472  6E0F               	movwf	lcdPosition@line^0,c
  1103  002474  0E00               	movlw	0
  1104  002476  6E12               	movwf	(lcdPosition@col+1)^0,c
  1105  002478  0E00               	movlw	0
  1106  00247A  6E11               	movwf	lcdPosition@col^0,c
  1107  00247C  EC17  F01C         	call	_lcdPosition	;wreg free
  1108                           
  1109                           ;main.c: 36:     lcdString("para configurar!");
  1110  002480  0E1B               	movlw	low STR_2
  1111  002482  6E0F               	movwf	lcdString@msg^0,c
  1112  002484  0E06               	movlw	high STR_2
  1113  002486  6E10               	movwf	(lcdString@msg+1)^0,c
  1114  002488  ECF7  F01A         	call	_lcdString	;wreg free
  1115  00248C                     
  1116                           ;main.c: 38:     for(int i=0; i<70;i++){
  1117  00248C  0E00               	movlw	0
  1118  00248E  6E6D               	movwf	(main@i+1)^0,c
  1119  002490  0E00               	movlw	0
  1120  002492  6E6C               	movwf	main@i^0,c
  1121  002494                     l4299:
  1122                           
  1123                           ;main.c: 39:         for(int j=0;j<10;j++){
  1124  002494  0E00               	movlw	0
  1125  002496  6E6F               	movwf	(main@j+1)^0,c
  1126  002498  0E00               	movlw	0
  1127  00249A  6E6E               	movwf	main@j^0,c
  1128  00249C                     l4305:
  1129                           
  1130                           ;main.c: 40:            kpDebounce();
  1131  00249C  EC5C  F014         	call	_kpDebounce	;wreg free
  1132  0024A0                     
  1133                           ;main.c: 41:         if(kpReadKey() == 's'){
  1134  0024A0  ECC1  F018         	call	_kpReadKey	;wreg free
  1135  0024A4  0A73               	xorlw	115
  1136  0024A6  A4D8               	btfss	status,2,c
  1137  0024A8  EF58  F012         	goto	u4941
  1138  0024AC  EF5A  F012         	goto	u4940
  1139  0024B0                     u4941:
  1140  0024B0  EF5E  F012         	goto	l4313
  1141  0024B4                     u4940:
  1142  0024B4                     
  1143                           ;main.c: 42:             configuraPSI();
  1144  0024B4  ECF1  F016         	call	_configuraPSI	;wreg free
  1145  0024B8                     
  1146                           ;main.c: 43:             num=0;
  1147  0024B8  0E00               	movlw	0
  1148  0024BA  6E7C               	movwf	_num^0,c
  1149  0024BC                     l4313:
  1150                           
  1151                           ;main.c: 45:         }
  1152  0024BC  4A6E               	infsnz	main@j^0,f,c
  1153  0024BE  2A6F               	incf	(main@j+1)^0,f,c
  1154  0024C0  BE6F               	btfsc	(main@j+1)^0,7,c
  1155  0024C2  EF6C  F012         	goto	u4951
  1156  0024C6  506F               	movf	(main@j+1)^0,w,c
  1157  0024C8  E109               	bnz	u4950
  1158  0024CA  0E0A               	movlw	10
  1159  0024CC  5C6E               	subwf	main@j^0,w,c
  1160  0024CE  A0D8               	btfss	status,0,c
  1161  0024D0  EF6C  F012         	goto	u4951
  1162  0024D4  EF6E  F012         	goto	u4950
  1163  0024D8                     u4951:
  1164  0024D8  EF4E  F012         	goto	l4305
  1165  0024DC                     u4950:
  1166  0024DC                     
  1167                           ;main.c: 46:     }
  1168  0024DC  4A6C               	infsnz	main@i^0,f,c
  1169  0024DE  2A6D               	incf	(main@i+1)^0,f,c
  1170  0024E0  BE6D               	btfsc	(main@i+1)^0,7,c
  1171  0024E2  EF7C  F012         	goto	u4961
  1172  0024E6  506D               	movf	(main@i+1)^0,w,c
  1173  0024E8  E109               	bnz	u4960
  1174  0024EA  0E46               	movlw	70
  1175  0024EC  5C6C               	subwf	main@i^0,w,c
  1176  0024EE  A0D8               	btfss	status,0,c
  1177  0024F0  EF7C  F012         	goto	u4961
  1178  0024F4  EF7E  F012         	goto	u4960
  1179  0024F8                     u4961:
  1180  0024F8  EF4A  F012         	goto	l4299
  1181  0024FC                     u4960:
  1182  0024FC                     
  1183                           ;main.c: 47:     conf=0;
  1184  0024FC  0E00               	movlw	0
  1185  0024FE  6E7F               	movwf	_conf^0,c
  1186  002500                     
  1187                           ;main.c: 48:     instrucaoLCD();
  1188  002500  EC86  F016         	call	_instrucaoLCD	;wreg free
  1189  002504                     l4325:
  1190                           
  1191                           ;main.c: 52:         comandos();
  1192  002504  EC5C  F003         	call	_comandos	;wreg free
  1193  002508                     
  1194                           ;main.c: 53:         if(prt == 1){
  1195  002508  047E               	decf	_prt^0,w,c
  1196  00250A  A4D8               	btfss	status,2,c
  1197  00250C  EF8A  F012         	goto	u4971
  1198  002510  EF8C  F012         	goto	u4970
  1199  002514                     u4971:
  1200  002514  EFB0  F012         	goto	l4349
  1201  002518                     u4970:
  1202  002518                     
  1203                           ;main.c: 54:             lcdCommand(0x01);
  1204  002518  0E01               	movlw	1
  1205  00251A  EC0E  F01D         	call	_lcdCommand
  1206  00251E                     
  1207                           ;main.c: 55:             if(num<4){
  1208  00251E  0E04               	movlw	4
  1209  002520  607C               	cpfslt	_num^0,c
  1210  002522  EF95  F012         	goto	u4981
  1211  002526  EF97  F012         	goto	u4980
  1212  00252A                     u4981:
  1213  00252A  EF9D  F012         	goto	l4337
  1214  00252E                     u4980:
  1215  00252E                     
  1216                           ;main.c: 56:                 infoIndividual();
  1217  00252E  EC23  F00C         	call	_infoIndividual	;wreg free
  1218  002532                     l4335:
  1219                           
  1220                           ;main.c: 57:                 prt = 0;
  1221  002532  0E00               	movlw	0
  1222  002534  6E7E               	movwf	_prt^0,c
  1223                           
  1224                           ;main.c: 58:             }
  1225  002536  EFAE  F012         	goto	l4347
  1226  00253A                     l4337:
  1227  00253A  0E04               	movlw	4
  1228  00253C  187C               	xorwf	_num^0,w,c
  1229  00253E  A4D8               	btfss	status,2,c
  1230  002540  EFA4  F012         	goto	u4991
  1231  002544  EFA6  F012         	goto	u4990
  1232  002548                     u4991:
  1233  002548  EFAA  F012         	goto	l4343
  1234  00254C                     u4990:
  1235  00254C                     
  1236                           ;main.c: 60:                 infoPress();
  1237  00254C  EC14  F01A         	call	_infoPress	;wreg free
  1238  002550  EF99  F012         	goto	l4335
  1239  002554                     l4343:
  1240                           
  1241                           ;main.c: 64:                 infoTemp();
  1242  002554  ECE2  F019         	call	_infoTemp	;wreg free
  1243  002558  EF99  F012         	goto	l4335
  1244  00255C                     l4347:
  1245                           
  1246                           ;main.c: 67:             comandos();
  1247  00255C  EC5C  F003         	call	_comandos	;wreg free
  1248  002560                     l4349:
  1249                           
  1250                           ;main.c: 69:         teste();
  1251  002560  EC34  F01C         	call	_teste	;wreg free
  1252  002564                     
  1253                           ;main.c: 70:         block=block+1;
  1254  002564  2879               	incf	_block^0,w,c
  1255  002566  6E79               	movwf	_block^0,c
  1256  002568                     
  1257                           ;main.c: 71:         if(block == 100){
  1258  002568  0E64               	movlw	100
  1259  00256A  1879               	xorwf	_block^0,w,c
  1260  00256C  A4D8               	btfss	status,2,c
  1261  00256E  EFBB  F012         	goto	u5001
  1262  002572  EFBD  F012         	goto	u5000
  1263  002576                     u5001:
  1264  002576  EF82  F012         	goto	l4325
  1265  00257A                     u5000:
  1266  00257A                     
  1267                           ;main.c: 72:             ssdHeat();
  1268  00257A  ECB3  F00D         	call	_ssdHeat	;wreg free
  1269  00257E                     
  1270                           ;main.c: 73:             prt = 1;
  1271  00257E  0E01               	movlw	1
  1272  002580  6E7E               	movwf	_prt^0,c
  1273  002582                     
  1274                           ;main.c: 74:             block = 0;
  1275  002582  0E00               	movlw	0
  1276  002584  6E79               	movwf	_block^0,c
  1277  002586                     
  1278                           ;main.c: 75:             if(p[1]<50 && tblock == 0 )
  1279  002586  0E32               	movlw	50
  1280  002588  0100               	movlb	0	; () banked
  1281  00258A  61B1               	cpfslt	(_p+1)& (0+255),b
  1282  00258C  EFCA  F012         	goto	u5011
  1283  002590  EFCC  F012         	goto	u5010
  1284  002594                     u5011:
  1285  002594  EFD8  F012         	goto	l105
  1286  002598                     u5010:
  1287  002598                     
  1288                           ; BSR set to: 0
  1289  002598  5076               	movf	_tblock^0,w,c
  1290  00259A  A4D8               	btfss	status,2,c
  1291  00259C  EFD2  F012         	goto	u5021
  1292  0025A0  EFD4  F012         	goto	u5020
  1293  0025A4                     u5021:
  1294  0025A4  EFD8  F012         	goto	l105
  1295  0025A8                     u5020:
  1296  0025A8                     
  1297                           ; BSR set to: 0
  1298                           ;main.c: 76:                 buff=1;
  1299  0025A8  0E01               	movlw	1
  1300  0025AA  6E7B               	movwf	_buff^0,c
  1301  0025AC  EFDB  F012         	goto	l4369
  1302  0025B0                     l105:
  1303                           
  1304                           ; BSR set to: 0
  1305                           ;main.c: 78:                 buff= -1;
  1306  0025B0  687B               	setf	_buff^0,c
  1307  0025B2                     
  1308                           ; BSR set to: 0
  1309                           ;main.c: 79:                 tblock = 1;
  1310  0025B2  0E01               	movlw	1
  1311  0025B4  6E76               	movwf	_tblock^0,c
  1312  0025B6                     l4369:
  1313                           
  1314                           ; BSR set to: 0
  1315                           ;main.c: 81:             if(p[1]<15 && tblock == 1)
  1316  0025B6  0E0F               	movlw	15
  1317  0025B8  61B1               	cpfslt	(_p+1)& (0+255),b
  1318  0025BA  EFE1  F012         	goto	u5031
  1319  0025BE  EFE3  F012         	goto	u5030
  1320  0025C2                     u5031:
  1321  0025C2  EF82  F012         	goto	l4325
  1322  0025C6                     u5030:
  1323  0025C6                     
  1324                           ; BSR set to: 0
  1325  0025C6  0476               	decf	_tblock^0,w,c
  1326  0025C8  A4D8               	btfss	status,2,c
  1327  0025CA  EFE9  F012         	goto	u5041
  1328  0025CE  EFEB  F012         	goto	u5040
  1329  0025D2                     u5041:
  1330  0025D2  EF82  F012         	goto	l4325
  1331  0025D6                     u5040:
  1332  0025D6                     
  1333                           ; BSR set to: 0
  1334                           ;main.c: 82:                 tblock=0;
  1335  0025D6  0E00               	movlw	0
  1336  0025D8  6E76               	movwf	_tblock^0,c
  1337  0025DA  EF82  F012         	goto	l4325
  1338  0025DE  EF00  F000         	goto	start
  1339  0025E2                     __end_of_main:
  1340                           	callstack 0
  1341                           
  1342 ;; *************** function _teste *****************
  1343 ;; Defined at:
  1344 ;;		line 279 in file "main.c"
  1345 ;; Parameters:    Size  Location     Type
  1346 ;;		None
  1347 ;; Auto vars:     Size  Location     Type
  1348 ;;		None
  1349 ;; Return value:  Size  Location     Type
  1350 ;;                  1    wreg      void 
  1351 ;; Registers used:
  1352 ;;		wreg, status,2, status,0
  1353 ;; Tracked objects:
  1354 ;;		On entry : 0/0
  1355 ;;		On exit  : 0/0
  1356 ;;		Unchanged: 0/0
  1357 ;; Data sizes:     COMRAM   BANK0   BANK1   BANK2   BANK3   BANK4   BANK5
  1358 ;;      Params:         0       0       0       0       0       0       0
  1359 ;;      Locals:         0       0       0       0       0       0       0
  1360 ;;      Temps:          0       0       0       0       0       0       0
  1361 ;;      Totals:         0       0       0       0       0       0       0
  1362 ;;Total ram usage:        0 bytes
  1363 ;; Hardware stack levels used: 1
  1364 ;; This function calls:
  1365 ;;		Nothing
  1366 ;; This function is called by:
  1367 ;;		_main
  1368 ;; This function uses a non-reentrant model
  1369 ;;
  1370                           
  1371                           	psect	text1
  1372  003868                     __ptext1:
  1373                           	callstack 0
  1374  003868                     _teste:
  1375                           	callstack 30
  1376  003868                     
  1377                           ;main.c: 280:     p[0] = buff + p[0];
  1378  003868  507B               	movf	_buff^0,w,c
  1379  00386A  0100               	movlb	0	; () banked
  1380  00386C  25B0               	addwf	_p& (0+255),w,b
  1381  00386E  6FB0               	movwf	_p& (0+255),b
  1382                           
  1383                           ;main.c: 281:     p[1] = buff + p[1];
  1384  003870  51B1               	movf	(_p+1)& (0+255),w,b
  1385  003872  247B               	addwf	_buff^0,w,c
  1386  003874  6FB1               	movwf	(_p+1)& (0+255),b
  1387                           
  1388                           ;main.c: 282:     p[2] = buff + p[2];
  1389  003876  51B2               	movf	(_p+2)& (0+255),w,b
  1390  003878  247B               	addwf	_buff^0,w,c
  1391  00387A  6FB2               	movwf	(_p+2)& (0+255),b
  1392                           
  1393                           ;main.c: 283:     p[3] = buff + p[3];
  1394  00387C  51B3               	movf	(_p+3)& (0+255),w,b
  1395  00387E  247B               	addwf	_buff^0,w,c
  1396  003880  6FB3               	movwf	(_p+3)& (0+255),b
  1397                           
  1398                           ;main.c: 284:     tp[0] = buff + tp[0];
  1399  003882  507B               	movf	_buff^0,w,c
  1400  003884  25A8               	addwf	_tp& (0+255),w,b
  1401  003886  6FA8               	movwf	_tp& (0+255),b
  1402                           
  1403                           ;main.c: 285:     tp[1] = buff + tp[1];
  1404  003888  51A9               	movf	(_tp+1)& (0+255),w,b
  1405  00388A  247B               	addwf	_buff^0,w,c
  1406  00388C  6FA9               	movwf	(_tp+1)& (0+255),b
  1407                           
  1408                           ;main.c: 286:     tp[2] = buff + tp[2];
  1409  00388E  51AA               	movf	(_tp+2)& (0+255),w,b
  1410  003890  247B               	addwf	_buff^0,w,c
  1411  003892  6FAA               	movwf	(_tp+2)& (0+255),b
  1412                           
  1413                           ;main.c: 287:     tp[3] = buff + tp[3];
  1414  003894  51AB               	movf	(_tp+3)& (0+255),w,b
  1415  003896  247B               	addwf	_buff^0,w,c
  1416  003898  6FAB               	movwf	(_tp+3)& (0+255),b
  1417  00389A                     
  1418                           ; BSR set to: 0
  1419                           ;main.c: 288:     buff = 0;
  1420  00389A  0E00               	movlw	0
  1421  00389C  6E7B               	movwf	_buff^0,c
  1422  00389E                     
  1423                           ; BSR set to: 0
  1424  00389E  0012               	return		;funcret
  1425  0038A0                     __end_of_teste:
  1426                           	callstack 0
  1427                           
  1428 ;; *************** function _ssdInit *****************
  1429 ;; Defined at:
  1430 ;;		line 94 in file "ssd.c"
  1431 ;; Parameters:    Size  Location     Type
  1432 ;;		None
  1433 ;; Auto vars:     Size  Location     Type
  1434 ;;		None
  1435 ;; Return value:  Size  Location     Type
  1436 ;;                  1    wreg      void 
  1437 ;; Registers used:
  1438 ;;		wreg, status,2, status,0, cstack
  1439 ;; Tracked objects:
  1440 ;;		On entry : 0/0
  1441 ;;		On exit  : 0/0
  1442 ;;		Unchanged: 0/0
  1443 ;; Data sizes:     COMRAM   BANK0   BANK1   BANK2   BANK3   BANK4   BANK5
  1444 ;;      Params:         0       0       0       0       0       0       0
  1445 ;;      Locals:         0       0       0       0       0       0       0
  1446 ;;      Temps:          0       0       0       0       0       0       0
  1447 ;;      Totals:         0       0       0       0       0       0       0
  1448 ;;Total ram usage:        0 bytes
  1449 ;; Hardware stack levels used: 1
  1450 ;; Hardware stack levels required when called: 2
  1451 ;; This function calls:
  1452 ;;		_pinMode
  1453 ;;		_soInit
  1454 ;; This function is called by:
  1455 ;;		_main
  1456 ;; This function uses a non-reentrant model
  1457 ;;
  1458                           
  1459                           	psect	text2
  1460  003598                     __ptext2:
  1461                           	callstack 0
  1462  003598                     _ssdInit:
  1463                           	callstack 28
  1464  003598                     
  1465                           ;ssd.c: 96:     pinMode(PIN_D0, 0);
  1466  003598  0E00               	movlw	0
  1467  00359A  6E02               	movwf	(pinMode@pin+1)^0,c
  1468  00359C  0E18               	movlw	24
  1469  00359E  6E01               	movwf	pinMode@pin^0,c
  1470  0035A0  0E00               	movlw	0
  1471  0035A2  6E04               	movwf	(pinMode@type+1)^0,c
  1472  0035A4  0E00               	movlw	0
  1473  0035A6  6E03               	movwf	pinMode@type^0,c
  1474  0035A8  EC23  F010         	call	_pinMode	;wreg free
  1475                           
  1476                           ;ssd.c: 97:     pinMode(PIN_D1, 0);
  1477  0035AC  0E00               	movlw	0
  1478  0035AE  6E02               	movwf	(pinMode@pin+1)^0,c
  1479  0035B0  0E19               	movlw	25
  1480  0035B2  6E01               	movwf	pinMode@pin^0,c
  1481  0035B4  0E00               	movlw	0
  1482  0035B6  6E04               	movwf	(pinMode@type+1)^0,c
  1483  0035B8  0E00               	movlw	0
  1484  0035BA  6E03               	movwf	pinMode@type^0,c
  1485  0035BC  EC23  F010         	call	_pinMode	;wreg free
  1486                           
  1487                           ;ssd.c: 98:     pinMode(PIN_D2, 0);
  1488  0035C0  0E00               	movlw	0
  1489  0035C2  6E02               	movwf	(pinMode@pin+1)^0,c
  1490  0035C4  0E1A               	movlw	26
  1491  0035C6  6E01               	movwf	pinMode@pin^0,c
  1492  0035C8  0E00               	movlw	0
  1493  0035CA  6E04               	movwf	(pinMode@type+1)^0,c
  1494  0035CC  0E00               	movlw	0
  1495  0035CE  6E03               	movwf	pinMode@type^0,c
  1496  0035D0  EC23  F010         	call	_pinMode	;wreg free
  1497                           
  1498                           ;ssd.c: 99:     pinMode(PIN_D3, 0);
  1499  0035D4  0E00               	movlw	0
  1500  0035D6  6E02               	movwf	(pinMode@pin+1)^0,c
  1501  0035D8  0E1B               	movlw	27
  1502  0035DA  6E01               	movwf	pinMode@pin^0,c
  1503  0035DC  0E00               	movlw	0
  1504  0035DE  6E04               	movwf	(pinMode@type+1)^0,c
  1505  0035E0  0E00               	movlw	0
  1506  0035E2  6E03               	movwf	pinMode@type^0,c
  1507  0035E4  EC23  F010         	call	_pinMode	;wreg free
  1508                           
  1509                           ;ssd.c: 102:     soInit();
  1510  0035E8  ECF8  F01B         	call	_soInit	;wreg free
  1511  0035EC  0012               	return		;funcret
  1512  0035EE                     __end_of_ssdInit:
  1513                           	callstack 0
  1514                           
  1515 ;; *************** function _ssdHeat *****************
  1516 ;; Defined at:
  1517 ;;		line 245 in file "main.c"
  1518 ;; Parameters:    Size  Location     Type
  1519 ;;		None
  1520 ;; Auto vars:     Size  Location     Type
  1521 ;;  j               2  105[COMRAM] int 
  1522 ;;  j               2  101[COMRAM] int 
  1523 ;;  i               2  103[COMRAM] int 
  1524 ;;  i               2   99[COMRAM] int 
  1525 ;; Return value:  Size  Location     Type
  1526 ;;                  1    wreg      void 
  1527 ;; Registers used:
  1528 ;;		wreg, fsr2l, fsr2h, status,2, status,0, tblptrl, tblptrh, tblptru, prodl, prodh, cstack
  1529 ;; Tracked objects:
  1530 ;;		On entry : 0/0
  1531 ;;		On exit  : 0/0
  1532 ;;		Unchanged: 0/0
  1533 ;; Data sizes:     COMRAM   BANK0   BANK1   BANK2   BANK3   BANK4   BANK5
  1534 ;;      Params:         0       0       0       0       0       0       0
  1535 ;;      Locals:         8       0       0       0       0       0       0
  1536 ;;      Temps:          1       0       0       0       0       0       0
  1537 ;;      Totals:         9       0       0       0       0       0       0
  1538 ;;Total ram usage:        9 bytes
  1539 ;; Hardware stack levels used: 1
  1540 ;; Hardware stack levels required when called: 4
  1541 ;; This function calls:
  1542 ;;		___fladd
  1543 ;;		___fldiv
  1544 ;;		___flmul
  1545 ;;		___fltol
  1546 ;;		___xxtofl
  1547 ;;		_pwmSet
  1548 ;;		_ssdDigit
  1549 ;;		_ssdUpdate
  1550 ;; This function is called by:
  1551 ;;		_main
  1552 ;; This function uses a non-reentrant model
  1553 ;;
  1554                           
  1555                           	psect	text3
  1556  001B66                     __ptext3:
  1557                           	callstack 0
  1558  001B66                     _ssdHeat:
  1559                           	callstack 26
  1560  001B66                     
  1561                           ;main.c: 246:     if(num<4){
  1562  001B66  0E04               	movlw	4
  1563  001B68  607C               	cpfslt	_num^0,c
  1564  001B6A  EFB9  F00D         	goto	u4871
  1565  001B6E  EFBB  F00D         	goto	u4870
  1566  001B72                     u4871:
  1567  001B72  EF5F  F00E         	goto	l4255
  1568  001B76                     u4870:
  1569  001B76                     
  1570                           ;main.c: 247:         if(tp[num] > (char)(100*(1+((float)tol/100)))){
  1571  001B76  0EA8               	movlw	low _tp
  1572  001B78  247C               	addwf	_num^0,w,c
  1573  001B7A  6ED9               	movwf	fsr2l,c
  1574  001B7C  6ADA               	clrf	fsr2h,c
  1575  001B7E  0E00               	movlw	high _tp
  1576  001B80  22DA               	addwfc	fsr2h,f,c
  1577  001B82  0E00               	movlw	0
  1578  001B84  6E3C               	movwf	___flmul@a^0,c
  1579  001B86  0E00               	movlw	0
  1580  001B88  6E3D               	movwf	(___flmul@a+1)^0,c
  1581  001B8A  0EC8               	movlw	200
  1582  001B8C  6E3E               	movwf	(___flmul@a+2)^0,c
  1583  001B8E  0E42               	movlw	66
  1584  001B90  6E3F               	movwf	(___flmul@a+3)^0,c
  1585  001B92  0E00               	movlw	0
  1586  001B94  6E2C               	movwf	___fladd@a^0,c
  1587  001B96  0E00               	movlw	0
  1588  001B98  6E2D               	movwf	(___fladd@a+1)^0,c
  1589  001B9A  0E80               	movlw	128
  1590  001B9C  6E2E               	movwf	(___fladd@a+2)^0,c
  1591  001B9E  0E3F               	movlw	63
  1592  001BA0  6E2F               	movwf	(___fladd@a+3)^0,c
  1593  001BA2  0E00               	movlw	0
  1594  001BA4  6E13               	movwf	___fldiv@a^0,c
  1595  001BA6  0E00               	movlw	0
  1596  001BA8  6E14               	movwf	(___fldiv@a+1)^0,c
  1597  001BAA  0EC8               	movlw	200
  1598  001BAC  6E15               	movwf	(___fldiv@a+2)^0,c
  1599  001BAE  0E42               	movlw	66
  1600  001BB0  6E16               	movwf	(___fldiv@a+3)^0,c
  1601  001BB2  C0A2  F001         	movff	_tol,___xxtofl@val
  1602  001BB6  C0A3  F002         	movff	_tol+1,___xxtofl@val+1
  1603  001BBA  0E00               	movlw	0
  1604  001BBC  BE02               	btfsc	(___xxtofl@val+1)^0,7,c
  1605  001BBE  0EFF               	movlw	-1
  1606  001BC0  6E03               	movwf	(___xxtofl@val+2)^0,c
  1607  001BC2  6E04               	movwf	(___xxtofl@val+3)^0,c
  1608  001BC4  0E01               	movlw	1
  1609  001BC6  EC4A  F011         	call	___xxtofl
  1610  001BCA  C001  F00F         	movff	?___xxtofl,___fldiv@b
  1611  001BCE  C002  F010         	movff	?___xxtofl+1,___fldiv@b+1
  1612  001BD2  C003  F011         	movff	?___xxtofl+2,___fldiv@b+2
  1613  001BD6  C004  F012         	movff	?___xxtofl+3,___fldiv@b+3
  1614  001BDA  EC56  F00A         	call	___fldiv	;wreg free
  1615  001BDE  C00F  F028         	movff	?___fldiv,___fladd@b
  1616  001BE2  C010  F029         	movff	?___fldiv+1,___fladd@b+1
  1617  001BE6  C011  F02A         	movff	?___fldiv+2,___fladd@b+2
  1618  001BEA  C012  F02B         	movff	?___fldiv+3,___fladd@b+3
  1619  001BEE  ECE1  F005         	call	___fladd	;wreg free
  1620  001BF2  C028  F038         	movff	?___fladd,___flmul@b
  1621  001BF6  C029  F039         	movff	?___fladd+1,___flmul@b+1
  1622  001BFA  C02A  F03A         	movff	?___fladd+2,___flmul@b+2
  1623  001BFE  C02B  F03B         	movff	?___fladd+3,___flmul@b+3
  1624  001C02  EC41  F008         	call	___flmul	;wreg free
  1625  001C06  C038  F059         	movff	?___flmul,___fltol@f1
  1626  001C0A  C039  F05A         	movff	?___flmul+1,___fltol@f1+1
  1627  001C0E  C03A  F05B         	movff	?___flmul+2,___fltol@f1+2
  1628  001C12  C03B  F05C         	movff	?___flmul+3,___fltol@f1+3
  1629  001C16  EC81  F015         	call	___fltol	;wreg free
  1630  001C1A  50DE               	movf	postinc2,w,c
  1631  001C1C  5C59               	subwf	?___fltol^0,w,c
  1632  001C1E  B0D8               	btfsc	status,0,c
  1633  001C20  EF14  F00E         	goto	u4881
  1634  001C24  EF16  F00E         	goto	u4880
  1635  001C28                     u4881:
  1636  001C28  EFFB  F00E         	goto	l211
  1637  001C2C                     u4880:
  1638  001C2C                     
  1639                           ;main.c: 248:             ssdDigit(1,0);
  1640  001C2C  0E00               	movlw	0
  1641  001C2E  6E01               	movwf	ssdDigit@pos^0,c
  1642  001C30  0E01               	movlw	1
  1643  001C32  ECA0  F01A         	call	_ssdDigit
  1644                           
  1645                           ;main.c: 249:             ssdDigit(2,1);
  1646  001C36  0E01               	movlw	1
  1647  001C38  6E01               	movwf	ssdDigit@pos^0,c
  1648  001C3A  0E02               	movlw	2
  1649  001C3C  ECA0  F01A         	call	_ssdDigit
  1650                           
  1651                           ;main.c: 250:             ssdDigit(3,2);
  1652  001C40  0E02               	movlw	2
  1653  001C42  6E01               	movwf	ssdDigit@pos^0,c
  1654  001C44  0E03               	movlw	3
  1655  001C46  ECA0  F01A         	call	_ssdDigit
  1656                           
  1657                           ;main.c: 251:             ssdDigit(4,3);
  1658  001C4A  0E03               	movlw	3
  1659  001C4C  6E01               	movwf	ssdDigit@pos^0,c
  1660  001C4E  0E04               	movlw	4
  1661  001C50  ECA0  F01A         	call	_ssdDigit
  1662  001C54                     
  1663                           ;main.c: 252:             for(int i=0; i<100;i++){
  1664  001C54  0E00               	movlw	0
  1665  001C56  6E65               	movwf	(ssdHeat@i+1)^0,c
  1666  001C58  0E00               	movlw	0
  1667  001C5A  6E64               	movwf	ssdHeat@i^0,c
  1668  001C5C                     l4233:
  1669                           
  1670                           ;main.c: 253:                 ssdUpdate();
  1671  001C5C  ECF1  F012         	call	_ssdUpdate	;wreg free
  1672  001C60                     
  1673                           ;main.c: 254:                 pwmSet(0);
  1674  001C60  0E00               	movlw	0
  1675  001C62  ECAC  F019         	call	_pwmSet
  1676  001C66                     
  1677                           ;main.c: 255:                 for(int j=0;j<10;j++){
  1678  001C66  0E00               	movlw	0
  1679  001C68  6E67               	movwf	(ssdHeat@j+1)^0,c
  1680  001C6A  0E00               	movlw	0
  1681  001C6C  6E66               	movwf	ssdHeat@j^0,c
  1682  001C6E                     l4243:
  1683                           
  1684                           ;main.c: 256:                     pwmSet(100);
  1685  001C6E  0E64               	movlw	100
  1686  001C70  ECAC  F019         	call	_pwmSet
  1687  001C74                     
  1688                           ;main.c: 257:                 }
  1689  001C74  4A66               	infsnz	ssdHeat@j^0,f,c
  1690  001C76  2A67               	incf	(ssdHeat@j+1)^0,f,c
  1691  001C78  BE67               	btfsc	(ssdHeat@j+1)^0,7,c
  1692  001C7A  EF48  F00E         	goto	u4891
  1693  001C7E  5067               	movf	(ssdHeat@j+1)^0,w,c
  1694  001C80  E109               	bnz	u4890
  1695  001C82  0E0A               	movlw	10
  1696  001C84  5C66               	subwf	ssdHeat@j^0,w,c
  1697  001C86  A0D8               	btfss	status,0,c
  1698  001C88  EF48  F00E         	goto	u4891
  1699  001C8C  EF4A  F00E         	goto	u4890
  1700  001C90                     u4891:
  1701  001C90  EF37  F00E         	goto	l4243
  1702  001C94                     u4890:
  1703  001C94                     
  1704                           ;main.c: 258:             }
  1705  001C94  4A64               	infsnz	ssdHeat@i^0,f,c
  1706  001C96  2A65               	incf	(ssdHeat@i+1)^0,f,c
  1707  001C98  BE65               	btfsc	(ssdHeat@i+1)^0,7,c
  1708  001C9A  EF58  F00E         	goto	u4901
  1709  001C9E  5065               	movf	(ssdHeat@i+1)^0,w,c
  1710  001CA0  E109               	bnz	u4900
  1711  001CA2  0E64               	movlw	100
  1712  001CA4  5C64               	subwf	ssdHeat@i^0,w,c
  1713  001CA6  A0D8               	btfss	status,0,c
  1714  001CA8  EF58  F00E         	goto	u4901
  1715  001CAC  EF5A  F00E         	goto	u4900
  1716  001CB0                     u4901:
  1717  001CB0  EF2E  F00E         	goto	l4233
  1718  001CB4                     u4900:
  1719  001CB4                     
  1720                           ;main.c: 259:             pwmSet(0);
  1721  001CB4  0E00               	movlw	0
  1722  001CB6  ECAC  F019         	call	_pwmSet
  1723  001CBA  EFFB  F00E         	goto	l211
  1724  001CBE                     l4255:
  1725                           
  1726                           ;main.c: 263:         if(tpG > (char)(100*(1+((float)tol/100)))){
  1727  001CBE  0E00               	movlw	0
  1728  001CC0  6E3C               	movwf	___flmul@a^0,c
  1729  001CC2  0E00               	movlw	0
  1730  001CC4  6E3D               	movwf	(___flmul@a+1)^0,c
  1731  001CC6  0EC8               	movlw	200
  1732  001CC8  6E3E               	movwf	(___flmul@a+2)^0,c
  1733  001CCA  0E42               	movlw	66
  1734  001CCC  6E3F               	movwf	(___flmul@a+3)^0,c
  1735  001CCE  0E00               	movlw	0
  1736  001CD0  6E2C               	movwf	___fladd@a^0,c
  1737  001CD2  0E00               	movlw	0
  1738  001CD4  6E2D               	movwf	(___fladd@a+1)^0,c
  1739  001CD6  0E80               	movlw	128
  1740  001CD8  6E2E               	movwf	(___fladd@a+2)^0,c
  1741  001CDA  0E3F               	movlw	63
  1742  001CDC  6E2F               	movwf	(___fladd@a+3)^0,c
  1743  001CDE  0E00               	movlw	0
  1744  001CE0  6E13               	movwf	___fldiv@a^0,c
  1745  001CE2  0E00               	movlw	0
  1746  001CE4  6E14               	movwf	(___fldiv@a+1)^0,c
  1747  001CE6  0EC8               	movlw	200
  1748  001CE8  6E15               	movwf	(___fldiv@a+2)^0,c
  1749  001CEA  0E42               	movlw	66
  1750  001CEC  6E16               	movwf	(___fldiv@a+3)^0,c
  1751  001CEE  C0A2  F001         	movff	_tol,___xxtofl@val
  1752  001CF2  C0A3  F002         	movff	_tol+1,___xxtofl@val+1
  1753  001CF6  0E00               	movlw	0
  1754  001CF8  BE02               	btfsc	(___xxtofl@val+1)^0,7,c
  1755  001CFA  0EFF               	movlw	-1
  1756  001CFC  6E03               	movwf	(___xxtofl@val+2)^0,c
  1757  001CFE  6E04               	movwf	(___xxtofl@val+3)^0,c
  1758  001D00  0E01               	movlw	1
  1759  001D02  EC4A  F011         	call	___xxtofl
  1760  001D06  C001  F00F         	movff	?___xxtofl,___fldiv@b
  1761  001D0A  C002  F010         	movff	?___xxtofl+1,___fldiv@b+1
  1762  001D0E  C003  F011         	movff	?___xxtofl+2,___fldiv@b+2
  1763  001D12  C004  F012         	movff	?___xxtofl+3,___fldiv@b+3
  1764  001D16  EC56  F00A         	call	___fldiv	;wreg free
  1765  001D1A  C00F  F028         	movff	?___fldiv,___fladd@b
  1766  001D1E  C010  F029         	movff	?___fldiv+1,___fladd@b+1
  1767  001D22  C011  F02A         	movff	?___fldiv+2,___fladd@b+2
  1768  001D26  C012  F02B         	movff	?___fldiv+3,___fladd@b+3
  1769  001D2A  ECE1  F005         	call	___fladd	;wreg free
  1770  001D2E  C028  F038         	movff	?___fladd,___flmul@b
  1771  001D32  C029  F039         	movff	?___fladd+1,___flmul@b+1
  1772  001D36  C02A  F03A         	movff	?___fladd+2,___flmul@b+2
  1773  001D3A  C02B  F03B         	movff	?___fladd+3,___flmul@b+3
  1774  001D3E  EC41  F008         	call	___flmul	;wreg free
  1775  001D42  C038  F059         	movff	?___flmul,___fltol@f1
  1776  001D46  C039  F05A         	movff	?___flmul+1,___fltol@f1+1
  1777  001D4A  C03A  F05B         	movff	?___flmul+2,___fltol@f1+2
  1778  001D4E  C03B  F05C         	movff	?___flmul+3,___fltol@f1+3
  1779  001D52  EC81  F015         	call	___fltol	;wreg free
  1780  001D56  5077               	movf	_tpG^0,w,c
  1781  001D58  5C59               	subwf	?___fltol^0,w,c
  1782  001D5A  B0D8               	btfsc	status,0,c
  1783  001D5C  EFB2  F00E         	goto	u4911
  1784  001D60  EFB4  F00E         	goto	u4910
  1785  001D64                     u4911:
  1786  001D64  EFFB  F00E         	goto	l211
  1787  001D68                     u4910:
  1788  001D68                     
  1789                           ;main.c: 264:             ssdDigit(1,0);
  1790  001D68  0E00               	movlw	0
  1791  001D6A  6E01               	movwf	ssdDigit@pos^0,c
  1792  001D6C  0E01               	movlw	1
  1793  001D6E  ECA0  F01A         	call	_ssdDigit
  1794                           
  1795                           ;main.c: 265:             ssdDigit(2,1);
  1796  001D72  0E01               	movlw	1
  1797  001D74  6E01               	movwf	ssdDigit@pos^0,c
  1798  001D76  0E02               	movlw	2
  1799  001D78  ECA0  F01A         	call	_ssdDigit
  1800                           
  1801                           ;main.c: 266:             ssdDigit(3,2);
  1802  001D7C  0E02               	movlw	2
  1803  001D7E  6E01               	movwf	ssdDigit@pos^0,c
  1804  001D80  0E03               	movlw	3
  1805  001D82  ECA0  F01A         	call	_ssdDigit
  1806                           
  1807                           ;main.c: 267:             ssdDigit(4,3);
  1808  001D86  0E03               	movlw	3
  1809  001D88  6E01               	movwf	ssdDigit@pos^0,c
  1810  001D8A  0E04               	movlw	4
  1811  001D8C  ECA0  F01A         	call	_ssdDigit
  1812  001D90                     
  1813                           ;main.c: 268:             for(int i=0; i<100;i++){
  1814  001D90  0E00               	movlw	0
  1815  001D92  6E69               	movwf	(ssdHeat@i_220+1)^0,c
  1816  001D94  0E00               	movlw	0
  1817  001D96  6E68               	movwf	ssdHeat@i_220^0,c
  1818  001D98                     l4265:
  1819                           
  1820                           ;main.c: 269:                 ssdUpdate();
  1821  001D98  ECF1  F012         	call	_ssdUpdate	;wreg free
  1822  001D9C                     
  1823                           ;main.c: 270:                 pwmSet(0);
  1824  001D9C  0E00               	movlw	0
  1825  001D9E  ECAC  F019         	call	_pwmSet
  1826  001DA2                     
  1827                           ;main.c: 271:                 for(int j=0;j<10;j++){
  1828  001DA2  0E00               	movlw	0
  1829  001DA4  6E6B               	movwf	(ssdHeat@j_221+1)^0,c
  1830  001DA6  0E00               	movlw	0
  1831  001DA8  6E6A               	movwf	ssdHeat@j_221^0,c
  1832  001DAA                     l4275:
  1833                           
  1834                           ;main.c: 272:                     pwmSet(100);
  1835  001DAA  0E64               	movlw	100
  1836  001DAC  ECAC  F019         	call	_pwmSet
  1837  001DB0                     
  1838                           ;main.c: 273:                 }
  1839  001DB0  4A6A               	infsnz	ssdHeat@j_221^0,f,c
  1840  001DB2  2A6B               	incf	(ssdHeat@j_221+1)^0,f,c
  1841  001DB4  BE6B               	btfsc	(ssdHeat@j_221+1)^0,7,c
  1842  001DB6  EFE6  F00E         	goto	u4921
  1843  001DBA  506B               	movf	(ssdHeat@j_221+1)^0,w,c
  1844  001DBC  E109               	bnz	u4920
  1845  001DBE  0E0A               	movlw	10
  1846  001DC0  5C6A               	subwf	ssdHeat@j_221^0,w,c
  1847  001DC2  A0D8               	btfss	status,0,c
  1848  001DC4  EFE6  F00E         	goto	u4921
  1849  001DC8  EFE8  F00E         	goto	u4920
  1850  001DCC                     u4921:
  1851  001DCC  EFD5  F00E         	goto	l4275
  1852  001DD0                     u4920:
  1853  001DD0                     
  1854                           ;main.c: 274:             }
  1855  001DD0  4A68               	infsnz	ssdHeat@i_220^0,f,c
  1856  001DD2  2A69               	incf	(ssdHeat@i_220+1)^0,f,c
  1857  001DD4  BE69               	btfsc	(ssdHeat@i_220+1)^0,7,c
  1858  001DD6  EFF6  F00E         	goto	u4931
  1859  001DDA  5069               	movf	(ssdHeat@i_220+1)^0,w,c
  1860  001DDC  E109               	bnz	u4930
  1861  001DDE  0E64               	movlw	100
  1862  001DE0  5C68               	subwf	ssdHeat@i_220^0,w,c
  1863  001DE2  A0D8               	btfss	status,0,c
  1864  001DE4  EFF6  F00E         	goto	u4931
  1865  001DE8  EFF8  F00E         	goto	u4930
  1866  001DEC                     u4931:
  1867  001DEC  EFCC  F00E         	goto	l4265
  1868  001DF0                     u4930:
  1869  001DF0                     
  1870                           ;main.c: 275:             pwmSet(0);
  1871  001DF0  0E00               	movlw	0
  1872  001DF2  ECAC  F019         	call	_pwmSet
  1873  001DF6                     l211:
  1874  001DF6  0012               	return		;funcret
  1875  001DF8                     __end_of_ssdHeat:
  1876                           	callstack 0
  1877                           
  1878 ;; *************** function _ssdUpdate *****************
  1879 ;; Defined at:
  1880 ;;		line 50 in file "ssd.c"
  1881 ;; Parameters:    Size  Location     Type
  1882 ;;		None
  1883 ;; Auto vars:     Size  Location     Type
  1884 ;;		None
  1885 ;; Return value:  Size  Location     Type
  1886 ;;                  1    wreg      void 
  1887 ;; Registers used:
  1888 ;;		wreg, status,2, status,0, tblptrl, tblptrh, tblptru, cstack
  1889 ;; Tracked objects:
  1890 ;;		On entry : 0/0
  1891 ;;		On exit  : 0/0
  1892 ;;		Unchanged: 0/0
  1893 ;; Data sizes:     COMRAM   BANK0   BANK1   BANK2   BANK3   BANK4   BANK5
  1894 ;;      Params:         0       0       0       0       0       0       0
  1895 ;;      Locals:         0       0       0       0       0       0       0
  1896 ;;      Temps:          2       0       0       0       0       0       0
  1897 ;;      Totals:         2       0       0       0       0       0       0
  1898 ;;Total ram usage:        2 bytes
  1899 ;; Hardware stack levels used: 1
  1900 ;; Hardware stack levels required when called: 3
  1901 ;; This function calls:
  1902 ;;		_digitalWrite
  1903 ;;		_soWrite
  1904 ;; This function is called by:
  1905 ;;		_ssdHeat
  1906 ;; This function uses a non-reentrant model
  1907 ;;
  1908                           
  1909                           	psect	text4
  1910  0025E2                     __ptext4:
  1911                           	callstack 0
  1912  0025E2                     _ssdUpdate:
  1913                           	callstack 26
  1914  0025E2                     
  1915                           ;ssd.c: 54:     digitalWrite(PIN_D0,0);
  1916  0025E2  0E00               	movlw	0
  1917  0025E4  6E02               	movwf	(digitalWrite@pin+1)^0,c
  1918  0025E6  0E18               	movlw	24
  1919  0025E8  6E01               	movwf	digitalWrite@pin^0,c
  1920  0025EA  0E00               	movlw	0
  1921  0025EC  6E04               	movwf	(digitalWrite@value+1)^0,c
  1922  0025EE  0E00               	movlw	0
  1923  0025F0  6E03               	movwf	digitalWrite@value^0,c
  1924  0025F2  ECFC  F00E         	call	_digitalWrite	;wreg free
  1925                           
  1926                           ;ssd.c: 55:     digitalWrite(PIN_D1,0);
  1927  0025F6  0E00               	movlw	0
  1928  0025F8  6E02               	movwf	(digitalWrite@pin+1)^0,c
  1929  0025FA  0E19               	movlw	25
  1930  0025FC  6E01               	movwf	digitalWrite@pin^0,c
  1931  0025FE  0E00               	movlw	0
  1932  002600  6E04               	movwf	(digitalWrite@value+1)^0,c
  1933  002602  0E00               	movlw	0
  1934  002604  6E03               	movwf	digitalWrite@value^0,c
  1935  002606  ECFC  F00E         	call	_digitalWrite	;wreg free
  1936                           
  1937                           ;ssd.c: 56:     digitalWrite(PIN_D2,0);
  1938  00260A  0E00               	movlw	0
  1939  00260C  6E02               	movwf	(digitalWrite@pin+1)^0,c
  1940  00260E  0E1A               	movlw	26
  1941  002610  6E01               	movwf	digitalWrite@pin^0,c
  1942  002612  0E00               	movlw	0
  1943  002614  6E04               	movwf	(digitalWrite@value+1)^0,c
  1944  002616  0E00               	movlw	0
  1945  002618  6E03               	movwf	digitalWrite@value^0,c
  1946  00261A  ECFC  F00E         	call	_digitalWrite	;wreg free
  1947                           
  1948                           ;ssd.c: 57:     digitalWrite(PIN_D3,0);
  1949  00261E  0E00               	movlw	0
  1950  002620  6E02               	movwf	(digitalWrite@pin+1)^0,c
  1951  002622  0E1B               	movlw	27
  1952  002624  6E01               	movwf	digitalWrite@pin^0,c
  1953  002626  0E00               	movlw	0
  1954  002628  6E04               	movwf	(digitalWrite@value+1)^0,c
  1955  00262A  0E00               	movlw	0
  1956  00262C  6E03               	movwf	digitalWrite@value^0,c
  1957  00262E  ECFC  F00E         	call	_digitalWrite	;wreg free
  1958                           
  1959                           ;ssd.c: 60:     soWrite(0x00);
  1960  002632  0E00               	movlw	0
  1961  002634  6E08               	movwf	(soWrite@value+1)^0,c
  1962  002636  0E00               	movlw	0
  1963  002638  6E07               	movwf	soWrite@value^0,c
  1964  00263A  EC4A  F01B         	call	_soWrite	;wreg free
  1965                           
  1966                           ;ssd.c: 62:     switch (display)
  1967  00263E  EF89  F013         	goto	l4003
  1968  002642                     l3975:
  1969                           
  1970                           ;ssd.c: 65:             soWrite(valor[v0]);
  1971  002642  0E01               	movlw	low _valor
  1972  002644  2473               	addwf	_v0^0,w,c
  1973  002646  6EF6               	movwf	tblptrl,c
  1974  002648  6AF7               	clrf	tblptrh,c
  1975  00264A  0E06               	movlw	high _valor
  1976  00264C  22F7               	addwfc	tblptrh,f,c
  1977  00264E                     	if	0	;There are less than 3 active tblptr bytes
  1978  00264E                     	endif
  1979  00264E  0008               	tblrd		*
  1980  002650  50F5               	movf	tablat,w,c
  1981  002652  6E07               	movwf	soWrite@value^0,c
  1982  002654  6A08               	clrf	(soWrite@value+1)^0,c
  1983  002656  EC4A  F01B         	call	_soWrite	;wreg free
  1984  00265A                     
  1985                           ;ssd.c: 66:             digitalWrite(PIN_D0,1);
  1986  00265A  0E00               	movlw	0
  1987  00265C  6E02               	movwf	(digitalWrite@pin+1)^0,c
  1988  00265E  0E18               	movlw	24
  1989  002660  6E01               	movwf	digitalWrite@pin^0,c
  1990  002662  0E00               	movlw	0
  1991  002664  6E04               	movwf	(digitalWrite@value+1)^0,c
  1992  002666  0E01               	movlw	1
  1993  002668  6E03               	movwf	digitalWrite@value^0,c
  1994  00266A  ECFC  F00E         	call	_digitalWrite	;wreg free
  1995  00266E                     
  1996                           ;ssd.c: 67:             display = 1;
  1997  00266E  0E01               	movlw	1
  1998  002670  6E74               	movwf	_display^0,c
  1999                           
  2000                           ;ssd.c: 68:             break;
  2001  002672  EFA6  F013         	goto	l495
  2002  002676                     l3981:
  2003                           
  2004                           ;ssd.c: 71:             soWrite(valor[v1]);
  2005  002676  0E01               	movlw	low _valor
  2006  002678  2472               	addwf	_v1^0,w,c
  2007  00267A  6EF6               	movwf	tblptrl,c
  2008  00267C  6AF7               	clrf	tblptrh,c
  2009  00267E  0E06               	movlw	high _valor
  2010  002680  22F7               	addwfc	tblptrh,f,c
  2011  002682                     	if	0	;There are less than 3 active tblptr bytes
  2012  002682                     	endif
  2013  002682  0008               	tblrd		*
  2014  002684  50F5               	movf	tablat,w,c
  2015  002686  6E07               	movwf	soWrite@value^0,c
  2016  002688  6A08               	clrf	(soWrite@value+1)^0,c
  2017  00268A  EC4A  F01B         	call	_soWrite	;wreg free
  2018  00268E                     
  2019                           ;ssd.c: 72:             digitalWrite(PIN_D1,1);
  2020  00268E  0E00               	movlw	0
  2021  002690  6E02               	movwf	(digitalWrite@pin+1)^0,c
  2022  002692  0E19               	movlw	25
  2023  002694  6E01               	movwf	digitalWrite@pin^0,c
  2024  002696  0E00               	movlw	0
  2025  002698  6E04               	movwf	(digitalWrite@value+1)^0,c
  2026  00269A  0E01               	movlw	1
  2027  00269C  6E03               	movwf	digitalWrite@value^0,c
  2028  00269E  ECFC  F00E         	call	_digitalWrite	;wreg free
  2029  0026A2                     
  2030                           ;ssd.c: 73:             display = 2;
  2031  0026A2  0E02               	movlw	2
  2032  0026A4  6E74               	movwf	_display^0,c
  2033                           
  2034                           ;ssd.c: 74:             break;
  2035  0026A6  EFA6  F013         	goto	l495
  2036  0026AA                     l3987:
  2037                           
  2038                           ;ssd.c: 77:             soWrite(valor[v2]);
  2039  0026AA  0E01               	movlw	low _valor
  2040  0026AC  2471               	addwf	_v2^0,w,c
  2041  0026AE  6EF6               	movwf	tblptrl,c
  2042  0026B0  6AF7               	clrf	tblptrh,c
  2043  0026B2  0E06               	movlw	high _valor
  2044  0026B4  22F7               	addwfc	tblptrh,f,c
  2045  0026B6                     	if	0	;There are less than 3 active tblptr bytes
  2046  0026B6                     	endif
  2047  0026B6  0008               	tblrd		*
  2048  0026B8  50F5               	movf	tablat,w,c
  2049  0026BA  6E07               	movwf	soWrite@value^0,c
  2050  0026BC  6A08               	clrf	(soWrite@value+1)^0,c
  2051  0026BE  EC4A  F01B         	call	_soWrite	;wreg free
  2052  0026C2                     
  2053                           ;ssd.c: 78:             digitalWrite(PIN_D2,1);
  2054  0026C2  0E00               	movlw	0
  2055  0026C4  6E02               	movwf	(digitalWrite@pin+1)^0,c
  2056  0026C6  0E1A               	movlw	26
  2057  0026C8  6E01               	movwf	digitalWrite@pin^0,c
  2058  0026CA  0E00               	movlw	0
  2059  0026CC  6E04               	movwf	(digitalWrite@value+1)^0,c
  2060  0026CE  0E01               	movlw	1
  2061  0026D0  6E03               	movwf	digitalWrite@value^0,c
  2062  0026D2  ECFC  F00E         	call	_digitalWrite	;wreg free
  2063  0026D6                     
  2064                           ;ssd.c: 79:             display = 3;
  2065  0026D6  0E03               	movlw	3
  2066  0026D8  6E74               	movwf	_display^0,c
  2067                           
  2068                           ;ssd.c: 80:             break;
  2069  0026DA  EFA6  F013         	goto	l495
  2070  0026DE                     l3993:
  2071                           
  2072                           ;ssd.c: 83:             soWrite(valor[v3]);
  2073  0026DE  0E01               	movlw	low _valor
  2074  0026E0  2470               	addwf	_v3^0,w,c
  2075  0026E2  6EF6               	movwf	tblptrl,c
  2076  0026E4  6AF7               	clrf	tblptrh,c
  2077  0026E6  0E06               	movlw	high _valor
  2078  0026E8  22F7               	addwfc	tblptrh,f,c
  2079  0026EA                     	if	0	;There are less than 3 active tblptr bytes
  2080  0026EA                     	endif
  2081  0026EA  0008               	tblrd		*
  2082  0026EC  50F5               	movf	tablat,w,c
  2083  0026EE  6E07               	movwf	soWrite@value^0,c
  2084  0026F0  6A08               	clrf	(soWrite@value+1)^0,c
  2085  0026F2  EC4A  F01B         	call	_soWrite	;wreg free
  2086  0026F6                     
  2087                           ;ssd.c: 84:             digitalWrite(PIN_D3,1);
  2088  0026F6  0E00               	movlw	0
  2089  0026F8  6E02               	movwf	(digitalWrite@pin+1)^0,c
  2090  0026FA  0E1B               	movlw	27
  2091  0026FC  6E01               	movwf	digitalWrite@pin^0,c
  2092  0026FE  0E00               	movlw	0
  2093  002700  6E04               	movwf	(digitalWrite@value+1)^0,c
  2094  002702  0E01               	movlw	1
  2095  002704  6E03               	movwf	digitalWrite@value^0,c
  2096  002706  ECFC  F00E         	call	_digitalWrite	;wreg free
  2097  00270A                     l3997:
  2098                           
  2099                           ;ssd.c: 85:             display = 0;
  2100  00270A  0E00               	movlw	0
  2101  00270C  6E74               	movwf	_display^0,c
  2102                           
  2103                           ;ssd.c: 86:             break;
  2104  00270E  EFA6  F013         	goto	l495
  2105  002712                     l4003:
  2106  002712  5074               	movf	_display^0,w,c
  2107  002714  6E0A               	movwf	??_ssdUpdate^0,c
  2108  002716  6A0B               	clrf	(??_ssdUpdate+1)^0,c
  2109                           
  2110                           ; Switch on 2 bytes has been partitioned into a top level switch of size 1, and 1 sub-sw
      +                          itches
  2111                           ; Switch size 1, requested type "simple"
  2112                           ; Number of cases is 1, Range of values is 0 to 0
  2113                           ; switch strategies available:
  2114                           ; Name         Instructions Cycles
  2115                           ; simple_byte            4     3 (average)
  2116                           ;	Chosen strategy is simple_byte
  2117  002718  500B               	movf	(??_ssdUpdate+1)^0,w,c
  2118  00271A  0A00               	xorlw	0	; case 0
  2119  00271C  B4D8               	btfsc	status,2,c
  2120  00271E  EF93  F013         	goto	l4419
  2121  002722  EF85  F013         	goto	l3997
  2122  002726                     l4419:
  2123                           
  2124                           ; Switch size 1, requested type "simple"
  2125                           ; Number of cases is 4, Range of values is 0 to 3
  2126                           ; switch strategies available:
  2127                           ; Name         Instructions Cycles
  2128                           ; simple_byte           13     7 (average)
  2129                           ;	Chosen strategy is simple_byte
  2130  002726  500A               	movf	??_ssdUpdate^0,w,c
  2131  002728  0A00               	xorlw	0	; case 0
  2132  00272A  B4D8               	btfsc	status,2,c
  2133  00272C  EF21  F013         	goto	l3975
  2134  002730  0A01               	xorlw	1	; case 1
  2135  002732  B4D8               	btfsc	status,2,c
  2136  002734  EF3B  F013         	goto	l3981
  2137  002738  0A03               	xorlw	3	; case 2
  2138  00273A  B4D8               	btfsc	status,2,c
  2139  00273C  EF55  F013         	goto	l3987
  2140  002740  0A01               	xorlw	1	; case 3
  2141  002742  B4D8               	btfsc	status,2,c
  2142  002744  EF6F  F013         	goto	l3993
  2143  002748  EF85  F013         	goto	l3997
  2144  00274C                     l495:
  2145  00274C  0012               	return		;funcret
  2146  00274E                     __end_of_ssdUpdate:
  2147                           	callstack 0
  2148                           
  2149 ;; *************** function _ssdDigit *****************
  2150 ;; Defined at:
  2151 ;;		line 34 in file "ssd.c"
  2152 ;; Parameters:    Size  Location     Type
  2153 ;;  val             1    wreg     unsigned char 
  2154 ;;  pos             1    0[COMRAM] unsigned char 
  2155 ;; Auto vars:     Size  Location     Type
  2156 ;;  val             1    1[COMRAM] unsigned char 
  2157 ;; Return value:  Size  Location     Type
  2158 ;;                  1    wreg      void 
  2159 ;; Registers used:
  2160 ;;		wreg, status,2, status,0
  2161 ;; Tracked objects:
  2162 ;;		On entry : 0/0
  2163 ;;		On exit  : 0/0
  2164 ;;		Unchanged: 0/0
  2165 ;; Data sizes:     COMRAM   BANK0   BANK1   BANK2   BANK3   BANK4   BANK5
  2166 ;;      Params:         1       0       0       0       0       0       0
  2167 ;;      Locals:         1       0       0       0       0       0       0
  2168 ;;      Temps:          0       0       0       0       0       0       0
  2169 ;;      Totals:         2       0       0       0       0       0       0
  2170 ;;Total ram usage:        2 bytes
  2171 ;; Hardware stack levels used: 1
  2172 ;; This function calls:
  2173 ;;		Nothing
  2174 ;; This function is called by:
  2175 ;;		_ssdHeat
  2176 ;; This function uses a non-reentrant model
  2177 ;;
  2178                           
  2179                           	psect	text5
  2180  003540                     __ptext5:
  2181                           	callstack 0
  2182  003540                     _ssdDigit:
  2183                           	callstack 29
  2184                           
  2185                           ;incstack = 0
  2186                           ;ssdDigit@val stored from wreg
  2187  003540  6E02               	movwf	ssdDigit@val^0,c
  2188  003542                     
  2189                           ;ssd.c: 35:     if (pos == 0) {
  2190  003542  5001               	movf	ssdDigit@pos^0,w,c
  2191  003544  A4D8               	btfss	status,2,c
  2192  003546  EFA7  F01A         	goto	u4701
  2193  00354A  EFA9  F01A         	goto	u4700
  2194  00354E                     u4701:
  2195  00354E  EFAB  F01A         	goto	l3961
  2196  003552                     u4700:
  2197  003552                     
  2198                           ;ssd.c: 36:         v0 = val;
  2199  003552  C002  F073         	movff	ssdDigit@val,_v0
  2200  003556                     l3961:
  2201                           
  2202                           ;ssd.c: 38:     if (pos == 1) {
  2203  003556  0401               	decf	ssdDigit@pos^0,w,c
  2204  003558  A4D8               	btfss	status,2,c
  2205  00355A  EFB1  F01A         	goto	u4711
  2206  00355E  EFB3  F01A         	goto	u4710
  2207  003562                     u4711:
  2208  003562  EFB5  F01A         	goto	l3965
  2209  003566                     u4710:
  2210  003566                     
  2211                           ;ssd.c: 39:         v1 = val;
  2212  003566  C002  F072         	movff	ssdDigit@val,_v1
  2213  00356A                     l3965:
  2214                           
  2215                           ;ssd.c: 41:     if (pos == 2) {
  2216  00356A  0E02               	movlw	2
  2217  00356C  1801               	xorwf	ssdDigit@pos^0,w,c
  2218  00356E  A4D8               	btfss	status,2,c
  2219  003570  EFBC  F01A         	goto	u4721
  2220  003574  EFBE  F01A         	goto	u4720
  2221  003578                     u4721:
  2222  003578  EFC0  F01A         	goto	l3969
  2223  00357C                     u4720:
  2224  00357C                     
  2225                           ;ssd.c: 42:         v2 = val;
  2226  00357C  C002  F071         	movff	ssdDigit@val,_v2
  2227  003580                     l3969:
  2228                           
  2229                           ;ssd.c: 44:     if (pos == 3) {
  2230  003580  0E03               	movlw	3
  2231  003582  1801               	xorwf	ssdDigit@pos^0,w,c
  2232  003584  A4D8               	btfss	status,2,c
  2233  003586  EFC7  F01A         	goto	u4731
  2234  00358A  EFC9  F01A         	goto	u4730
  2235  00358E                     u4731:
  2236  00358E  EFCB  F01A         	goto	l485
  2237  003592                     u4730:
  2238  003592                     
  2239                           ;ssd.c: 45:         v3 = val;
  2240  003592  C002  F070         	movff	ssdDigit@val,_v3
  2241  003596                     l485:
  2242  003596  0012               	return		;funcret
  2243  003598                     __end_of_ssdDigit:
  2244                           	callstack 0
  2245                           
  2246 ;; *************** function _pwmSet *****************
  2247 ;; Defined at:
  2248 ;;		line 24 in file "pwm.c"
  2249 ;; Parameters:    Size  Location     Type
  2250 ;;  porcento        1    wreg     unsigned char 
  2251 ;; Auto vars:     Size  Location     Type
  2252 ;;  porcento        1    9[COMRAM] unsigned char 
  2253 ;;  val             2   10[COMRAM] unsigned int 
  2254 ;; Return value:  Size  Location     Type
  2255 ;;                  1    wreg      void 
  2256 ;; Registers used:
  2257 ;;		wreg, status,2, status,0, prodl, prodh, cstack
  2258 ;; Tracked objects:
  2259 ;;		On entry : 0/0
  2260 ;;		On exit  : 0/0
  2261 ;;		Unchanged: 0/0
  2262 ;; Data sizes:     COMRAM   BANK0   BANK1   BANK2   BANK3   BANK4   BANK5
  2263 ;;      Params:         0       0       0       0       0       0       0
  2264 ;;      Locals:         3       0       0       0       0       0       0
  2265 ;;      Temps:          2       0       0       0       0       0       0
  2266 ;;      Totals:         5       0       0       0       0       0       0
  2267 ;;Total ram usage:        5 bytes
  2268 ;; Hardware stack levels used: 1
  2269 ;; Hardware stack levels required when called: 1
  2270 ;; This function calls:
  2271 ;;		___lwdiv
  2272 ;;		___wmul
  2273 ;; This function is called by:
  2274 ;;		_ssdHeat
  2275 ;; This function uses a non-reentrant model
  2276 ;;
  2277                           
  2278                           	psect	text6
  2279  003358                     __ptext6:
  2280                           	callstack 0
  2281  003358                     _pwmSet:
  2282                           	callstack 28
  2283                           
  2284                           ;incstack = 0
  2285                           ;pwmSet@porcento stored from wreg
  2286  003358  6E0A               	movwf	pwmSet@porcento^0,c
  2287  00335A                     
  2288                           ;pwm.c: 24: void pwmSet(unsigned char porcento);pwm.c: 25: {;pwm.c: 31:  unsigned int va
      +                          l = ((unsigned int)porcento) *(PR2+1);
  2289  00335A  0E01               	movlw	1
  2290  00335C  24CB               	addwf	203,w,c	;volatile
  2291  00335E  6E01               	movwf	___wmul@multiplier^0,c
  2292  003360  6A02               	clrf	(___wmul@multiplier+1)^0,c
  2293  003362  0E00               	movlw	0
  2294  003364  2202               	addwfc	(___wmul@multiplier+1)^0,f,c
  2295  003366  C00A  F003         	movff	pwmSet@porcento,___wmul@multiplicand
  2296  00336A  6A04               	clrf	(___wmul@multiplicand+1)^0,c
  2297  00336C  ECC6  F01C         	call	___wmul	;wreg free
  2298  003370  C001  F00B         	movff	?___wmul,pwmSet@val
  2299  003374  C002  F00C         	movff	?___wmul+1,pwmSet@val+1
  2300  003378                     
  2301                           ;pwm.c: 33:     val = val / 25;
  2302  003378  C00B  F001         	movff	pwmSet@val,___lwdiv@dividend
  2303  00337C  C00C  F002         	movff	pwmSet@val+1,___lwdiv@dividend+1
  2304  003380  0E00               	movlw	0
  2305  003382  6E04               	movwf	(___lwdiv@divisor+1)^0,c
  2306  003384  0E19               	movlw	25
  2307  003386  6E03               	movwf	___lwdiv@divisor^0,c
  2308  003388  ECFE  F018         	call	___lwdiv	;wreg free
  2309  00338C  C001  F00B         	movff	?___lwdiv,pwmSet@val
  2310  003390  C002  F00C         	movff	?___lwdiv+1,pwmSet@val+1
  2311  003394                     
  2312                           ;pwm.c: 35:  val &= 0x03ff;
  2313  003394  0EFF               	movlw	255
  2314  003396  160B               	andwf	pwmSet@val^0,f,c
  2315  003398  0E03               	movlw	3
  2316  00339A  160C               	andwf	(pwmSet@val+1)^0,f,c
  2317  00339C                     
  2318                           ;pwm.c: 37:  CCPR2L = val >> 2;
  2319  00339C  C00B  F008         	movff	pwmSet@val,??_pwmSet
  2320  0033A0  C00C  F009         	movff	pwmSet@val+1,??_pwmSet+1
  2321  0033A4  90D8               	bcf	status,0,c
  2322  0033A6  3209               	rrcf	(??_pwmSet+1)^0,f,c
  2323  0033A8  3208               	rrcf	??_pwmSet^0,f,c
  2324  0033AA  90D8               	bcf	status,0,c
  2325  0033AC  3209               	rrcf	(??_pwmSet+1)^0,f,c
  2326  0033AE  3208               	rrcf	??_pwmSet^0,f,c
  2327  0033B0  5008               	movf	??_pwmSet^0,w,c
  2328  0033B2  6EBB               	movwf	187,c	;volatile
  2329  0033B4                     
  2330                           ;pwm.c: 39:  CCP2CON |= (val & 0x0003) << 4;
  2331  0033B4  C00B  F008         	movff	pwmSet@val,??_pwmSet	;volatile
  2332  0033B8  0E03               	movlw	3
  2333  0033BA  1608               	andwf	??_pwmSet^0,f,c
  2334  0033BC  3808               	swapf	??_pwmSet^0,w,c
  2335  0033BE  0BF0               	andlw	240
  2336  0033C0  12BA               	iorwf	186,f,c	;volatile
  2337  0033C2  0012               	return		;funcret
  2338  0033C4                     __end_of_pwmSet:
  2339                           	callstack 0
  2340                           
  2341 ;; *************** function ___wmul *****************
  2342 ;; Defined at:
  2343 ;;		line 15 in file "C:\Program Files\Microchip\xc8\v2.32\pic\sources\c99\common\Umul16.c"
  2344 ;; Parameters:    Size  Location     Type
  2345 ;;  multiplier      2    0[COMRAM] unsigned int 
  2346 ;;  multiplicand    2    2[COMRAM] unsigned int 
  2347 ;; Auto vars:     Size  Location     Type
  2348 ;;  product         2    4[COMRAM] unsigned int 
  2349 ;; Return value:  Size  Location     Type
  2350 ;;                  2    0[COMRAM] unsigned int 
  2351 ;; Registers used:
  2352 ;;		wreg, status,2, status,0, prodl, prodh
  2353 ;; Tracked objects:
  2354 ;;		On entry : 0/0
  2355 ;;		On exit  : 0/0
  2356 ;;		Unchanged: 0/0
  2357 ;; Data sizes:     COMRAM   BANK0   BANK1   BANK2   BANK3   BANK4   BANK5
  2358 ;;      Params:         4       0       0       0       0       0       0
  2359 ;;      Locals:         2       0       0       0       0       0       0
  2360 ;;      Temps:          0       0       0       0       0       0       0
  2361 ;;      Totals:         6       0       0       0       0       0       0
  2362 ;;Total ram usage:        6 bytes
  2363 ;; Hardware stack levels used: 1
  2364 ;; This function calls:
  2365 ;;		Nothing
  2366 ;; This function is called by:
  2367 ;;		_pwmSet
  2368 ;; This function uses a non-reentrant model
  2369 ;;
  2370                           
  2371                           	psect	text7
  2372  00398C                     __ptext7:
  2373                           	callstack 0
  2374  00398C                     ___wmul:
  2375                           	callstack 28
  2376  00398C  5001               	movf	___wmul@multiplier^0,w,c
  2377  00398E  0203               	mulwf	___wmul@multiplicand^0,c
  2378  003990  CFF3 F005          	movff	prodl,___wmul@product
  2379  003994  CFF4 F006          	movff	prodh,___wmul@product+1
  2380  003998  5001               	movf	___wmul@multiplier^0,w,c
  2381  00399A  0204               	mulwf	(___wmul@multiplicand+1)^0,c
  2382  00399C  50F3               	movf	243,w,c
  2383  00399E  2606               	addwf	(___wmul@product+1)^0,f,c
  2384  0039A0  5002               	movf	(___wmul@multiplier+1)^0,w,c
  2385  0039A2  0203               	mulwf	___wmul@multiplicand^0,c
  2386  0039A4  50F3               	movf	243,w,c
  2387  0039A6  2606               	addwf	(___wmul@product+1)^0,f,c
  2388  0039A8  C005  F001         	movff	___wmul@product,?___wmul
  2389  0039AC  C006  F002         	movff	___wmul@product+1,?___wmul+1
  2390  0039B0  0012               	return		;funcret
  2391  0039B2                     __end_of___wmul:
  2392                           	callstack 0
  2393                           
  2394 ;; *************** function ___lwdiv *****************
  2395 ;; Defined at:
  2396 ;;		line 7 in file "C:\Program Files\Microchip\xc8\v2.32\pic\sources\c99\common\lwdiv.c"
  2397 ;; Parameters:    Size  Location     Type
  2398 ;;  dividend        2    0[COMRAM] unsigned int 
  2399 ;;  divisor         2    2[COMRAM] unsigned int 
  2400 ;; Auto vars:     Size  Location     Type
  2401 ;;  quotient        2    4[COMRAM] unsigned int 
  2402 ;;  counter         1    6[COMRAM] unsigned char 
  2403 ;; Return value:  Size  Location     Type
  2404 ;;                  2    0[COMRAM] unsigned int 
  2405 ;; Registers used:
  2406 ;;		wreg, status,2, status,0
  2407 ;; Tracked objects:
  2408 ;;		On entry : 0/0
  2409 ;;		On exit  : 0/0
  2410 ;;		Unchanged: 0/0
  2411 ;; Data sizes:     COMRAM   BANK0   BANK1   BANK2   BANK3   BANK4   BANK5
  2412 ;;      Params:         4       0       0       0       0       0       0
  2413 ;;      Locals:         3       0       0       0       0       0       0
  2414 ;;      Temps:          0       0       0       0       0       0       0
  2415 ;;      Totals:         7       0       0       0       0       0       0
  2416 ;;Total ram usage:        7 bytes
  2417 ;; Hardware stack levels used: 1
  2418 ;; This function calls:
  2419 ;;		Nothing
  2420 ;; This function is called by:
  2421 ;;		_pwmSet
  2422 ;; This function uses a non-reentrant model
  2423 ;;
  2424                           
  2425                           	psect	text8
  2426  0031FC                     __ptext8:
  2427                           	callstack 0
  2428  0031FC                     ___lwdiv:
  2429                           	callstack 28
  2430  0031FC  0E00               	movlw	0
  2431  0031FE  6E06               	movwf	(___lwdiv@quotient+1)^0,c
  2432  003200  0E00               	movlw	0
  2433  003202  6E05               	movwf	___lwdiv@quotient^0,c
  2434  003204  5003               	movf	___lwdiv@divisor^0,w,c
  2435  003206  1004               	iorwf	(___lwdiv@divisor+1)^0,w,c
  2436  003208  B4D8               	btfsc	status,2,c
  2437  00320A  EF09  F019         	goto	u4291
  2438  00320E  EF0B  F019         	goto	u4290
  2439  003212                     u4291:
  2440  003212  EF33  F019         	goto	l1011
  2441  003216                     u4290:
  2442  003216  0E01               	movlw	1
  2443  003218  6E07               	movwf	___lwdiv@counter^0,c
  2444  00321A  EF13  F019         	goto	l3693
  2445  00321E                     l3691:
  2446  00321E  90D8               	bcf	status,0,c
  2447  003220  3603               	rlcf	___lwdiv@divisor^0,f,c
  2448  003222  3604               	rlcf	(___lwdiv@divisor+1)^0,f,c
  2449  003224  2A07               	incf	___lwdiv@counter^0,f,c
  2450  003226                     l3693:
  2451  003226  AE04               	btfss	(___lwdiv@divisor+1)^0,7,c
  2452  003228  EF18  F019         	goto	u4301
  2453  00322C  EF1A  F019         	goto	u4300
  2454  003230                     u4301:
  2455  003230  EF0F  F019         	goto	l3691
  2456  003234                     u4300:
  2457  003234                     l3695:
  2458  003234  90D8               	bcf	status,0,c
  2459  003236  3605               	rlcf	___lwdiv@quotient^0,f,c
  2460  003238  3606               	rlcf	(___lwdiv@quotient+1)^0,f,c
  2461  00323A  5003               	movf	___lwdiv@divisor^0,w,c
  2462  00323C  5C01               	subwf	___lwdiv@dividend^0,w,c
  2463  00323E  5004               	movf	(___lwdiv@divisor+1)^0,w,c
  2464  003240  5802               	subwfb	(___lwdiv@dividend+1)^0,w,c
  2465  003242  A0D8               	btfss	status,0,c
  2466  003244  EF26  F019         	goto	u4311
  2467  003248  EF28  F019         	goto	u4310
  2468  00324C                     u4311:
  2469  00324C  EF2D  F019         	goto	l3703
  2470  003250                     u4310:
  2471  003250  5003               	movf	___lwdiv@divisor^0,w,c
  2472  003252  5E01               	subwf	___lwdiv@dividend^0,f,c
  2473  003254  5004               	movf	(___lwdiv@divisor+1)^0,w,c
  2474  003256  5A02               	subwfb	(___lwdiv@dividend+1)^0,f,c
  2475  003258  8005               	bsf	___lwdiv@quotient^0,0,c
  2476  00325A                     l3703:
  2477  00325A  90D8               	bcf	status,0,c
  2478  00325C  3204               	rrcf	(___lwdiv@divisor+1)^0,f,c
  2479  00325E  3203               	rrcf	___lwdiv@divisor^0,f,c
  2480  003260  2E07               	decfsz	___lwdiv@counter^0,f,c
  2481  003262  EF1A  F019         	goto	l3695
  2482  003266                     l1011:
  2483  003266  C005  F001         	movff	___lwdiv@quotient,?___lwdiv
  2484  00326A  C006  F002         	movff	___lwdiv@quotient+1,?___lwdiv+1
  2485  00326E  0012               	return		;funcret
  2486  003270                     __end_of___lwdiv:
  2487                           	callstack 0
  2488                           
  2489 ;; *************** function _rgbInit *****************
  2490 ;; Defined at:
  2491 ;;		line 46 in file "rgb.c"
  2492 ;; Parameters:    Size  Location     Type
  2493 ;;		None
  2494 ;; Auto vars:     Size  Location     Type
  2495 ;;		None
  2496 ;; Return value:  Size  Location     Type
  2497 ;;                  1    wreg      void 
  2498 ;; Registers used:
  2499 ;;		wreg, status,2, status,0, cstack
  2500 ;; Tracked objects:
  2501 ;;		On entry : 0/0
  2502 ;;		On exit  : 0/0
  2503 ;;		Unchanged: 0/0
  2504 ;; Data sizes:     COMRAM   BANK0   BANK1   BANK2   BANK3   BANK4   BANK5
  2505 ;;      Params:         0       0       0       0       0       0       0
  2506 ;;      Locals:         0       0       0       0       0       0       0
  2507 ;;      Temps:          0       0       0       0       0       0       0
  2508 ;;      Totals:         0       0       0       0       0       0       0
  2509 ;;Total ram usage:        0 bytes
  2510 ;; Hardware stack levels used: 1
  2511 ;; Hardware stack levels required when called: 1
  2512 ;; This function calls:
  2513 ;;		_pinMode
  2514 ;; This function is called by:
  2515 ;;		_main
  2516 ;; This function uses a non-reentrant model
  2517 ;;
  2518                           
  2519                           	psect	text9
  2520  0037B2                     __ptext9:
  2521                           	callstack 0
  2522  0037B2                     _rgbInit:
  2523                           	callstack 29
  2524  0037B2                     
  2525                           ;rgb.c: 47:  pinMode(PIN_D0, 0);
  2526  0037B2  0E00               	movlw	0
  2527  0037B4  6E02               	movwf	(pinMode@pin+1)^0,c
  2528  0037B6  0E18               	movlw	24
  2529  0037B8  6E01               	movwf	pinMode@pin^0,c
  2530  0037BA  0E00               	movlw	0
  2531  0037BC  6E04               	movwf	(pinMode@type+1)^0,c
  2532  0037BE  0E00               	movlw	0
  2533  0037C0  6E03               	movwf	pinMode@type^0,c
  2534  0037C2  EC23  F010         	call	_pinMode	;wreg free
  2535                           
  2536                           ;rgb.c: 48:  pinMode(PIN_D1, 0);
  2537  0037C6  0E00               	movlw	0
  2538  0037C8  6E02               	movwf	(pinMode@pin+1)^0,c
  2539  0037CA  0E19               	movlw	25
  2540  0037CC  6E01               	movwf	pinMode@pin^0,c
  2541  0037CE  0E00               	movlw	0
  2542  0037D0  6E04               	movwf	(pinMode@type+1)^0,c
  2543  0037D2  0E00               	movlw	0
  2544  0037D4  6E03               	movwf	pinMode@type^0,c
  2545  0037D6  EC23  F010         	call	_pinMode	;wreg free
  2546                           
  2547                           ;rgb.c: 49:  pinMode(PIN_D2, 0);
  2548  0037DA  0E00               	movlw	0
  2549  0037DC  6E02               	movwf	(pinMode@pin+1)^0,c
  2550  0037DE  0E1A               	movlw	26
  2551  0037E0  6E01               	movwf	pinMode@pin^0,c
  2552  0037E2  0E00               	movlw	0
  2553  0037E4  6E04               	movwf	(pinMode@type+1)^0,c
  2554  0037E6  0E00               	movlw	0
  2555  0037E8  6E03               	movwf	pinMode@type^0,c
  2556  0037EA  EC23  F010         	call	_pinMode	;wreg free
  2557  0037EE  0012               	return		;funcret
  2558  0037F0                     __end_of_rgbInit:
  2559                           	callstack 0
  2560                           
  2561 ;; *************** function _pwmInit *****************
  2562 ;; Defined at:
  2563 ;;		line 51 in file "pwm.c"
  2564 ;; Parameters:    Size  Location     Type
  2565 ;;		None
  2566 ;; Auto vars:     Size  Location     Type
  2567 ;;		None
  2568 ;; Return value:  Size  Location     Type
  2569 ;;                  1    wreg      void 
  2570 ;; Registers used:
  2571 ;;		wreg, status,2, status,0, cstack
  2572 ;; Tracked objects:
  2573 ;;		On entry : 0/0
  2574 ;;		On exit  : 0/0
  2575 ;;		Unchanged: 0/0
  2576 ;; Data sizes:     COMRAM   BANK0   BANK1   BANK2   BANK3   BANK4   BANK5
  2577 ;;      Params:         0       0       0       0       0       0       0
  2578 ;;      Locals:         0       0       0       0       0       0       0
  2579 ;;      Temps:          0       0       0       0       0       0       0
  2580 ;;      Totals:         0       0       0       0       0       0       0
  2581 ;;Total ram usage:        0 bytes
  2582 ;; Hardware stack levels used: 1
  2583 ;; Hardware stack levels required when called: 2
  2584 ;; This function calls:
  2585 ;;		_pwmFrequency
  2586 ;; This function is called by:
  2587 ;;		_main
  2588 ;; This function uses a non-reentrant model
  2589 ;;
  2590                           
  2591                           	psect	text10
  2592  003A3A                     __ptext10:
  2593                           	callstack 0
  2594  003A3A                     _pwmInit:
  2595                           	callstack 28
  2596  003A3A                     
  2597                           ;pwm.c: 53:  ((TRISC) &= ~(1<<(1)));
  2598  003A3A  9294               	bcf	148,1,c	;volatile
  2599  003A3C                     
  2600                           ;pwm.c: 55:  T2CON |= 0b00000011;
  2601  003A3C  0E03               	movlw	3
  2602  003A3E  12CA               	iorwf	202,f,c	;volatile
  2603  003A40                     
  2604                           ;pwm.c: 56:  ((T2CON) |= (1<<(2)));
  2605  003A40  84CA               	bsf	202,2,c	;volatile
  2606  003A42                     
  2607                           ;pwm.c: 58:  CCP2CON = 0b00001100;
  2608  003A42  0E0C               	movlw	12
  2609  003A44  6EBA               	movwf	186,c	;volatile
  2610  003A46                     
  2611                           ;pwm.c: 60:     pwmFrequency(100);
  2612  003A46  0E00               	movlw	0
  2613  003A48  6E10               	movwf	(pwmFrequency@freq+1)^0,c
  2614  003A4A  0E64               	movlw	100
  2615  003A4C  6E0F               	movwf	pwmFrequency@freq^0,c
  2616  003A4E  ECD9  F01C         	call	_pwmFrequency	;wreg free
  2617  003A52  0012               	return		;funcret
  2618  003A54                     __end_of_pwmInit:
  2619                           	callstack 0
  2620                           
  2621 ;; *************** function _pwmFrequency *****************
  2622 ;; Defined at:
  2623 ;;		line 44 in file "pwm.c"
  2624 ;; Parameters:    Size  Location     Type
  2625 ;;  freq            2   14[COMRAM] unsigned int 
  2626 ;; Auto vars:     Size  Location     Type
  2627 ;;		None
  2628 ;; Return value:  Size  Location     Type
  2629 ;;                  1    wreg      void 
  2630 ;; Registers used:
  2631 ;;		wreg, status,2, status,0, cstack
  2632 ;; Tracked objects:
  2633 ;;		On entry : 0/0
  2634 ;;		On exit  : 0/0
  2635 ;;		Unchanged: 0/0
  2636 ;; Data sizes:     COMRAM   BANK0   BANK1   BANK2   BANK3   BANK4   BANK5
  2637 ;;      Params:         2       0       0       0       0       0       0
  2638 ;;      Locals:         0       0       0       0       0       0       0
  2639 ;;      Temps:          0       0       0       0       0       0       0
  2640 ;;      Totals:         2       0       0       0       0       0       0
  2641 ;;Total ram usage:        2 bytes
  2642 ;; Hardware stack levels used: 1
  2643 ;; Hardware stack levels required when called: 1
  2644 ;; This function calls:
  2645 ;;		___aldiv
  2646 ;; This function is called by:
  2647 ;;		_pwmInit
  2648 ;; This function uses a non-reentrant model
  2649 ;;
  2650                           
  2651                           	psect	text11
  2652  0039B2                     __ptext11:
  2653                           	callstack 0
  2654  0039B2                     _pwmFrequency:
  2655                           	callstack 28
  2656  0039B2                     
  2657                           ;pwm.c: 44: void pwmFrequency(unsigned int freq);pwm.c: 45: {;pwm.c: 48:  PR2 = (125000l
      +                          /(freq)) - 1;
  2658  0039B2  0E48               	movlw	72
  2659  0039B4  6E01               	movwf	___aldiv@dividend^0,c
  2660  0039B6  0EE8               	movlw	232
  2661  0039B8  6E02               	movwf	(___aldiv@dividend+1)^0,c
  2662  0039BA  0E01               	movlw	1
  2663  0039BC  6E03               	movwf	(___aldiv@dividend+2)^0,c
  2664  0039BE  0E00               	movlw	0
  2665  0039C0  6E04               	movwf	(___aldiv@dividend+3)^0,c
  2666  0039C2  C00F  F005         	movff	pwmFrequency@freq,___aldiv@divisor
  2667  0039C6  C010  F006         	movff	pwmFrequency@freq+1,___aldiv@divisor+1
  2668  0039CA  6A07               	clrf	(___aldiv@divisor+2)^0,c
  2669  0039CC  6A08               	clrf	(___aldiv@divisor+3)^0,c
  2670  0039CE  ECFB  F014         	call	___aldiv	;wreg free
  2671  0039D2  0401               	decf	?___aldiv^0,w,c
  2672  0039D4  6ECB               	movwf	203,c	;volatile
  2673  0039D6  0012               	return		;funcret
  2674  0039D8                     __end_of_pwmFrequency:
  2675                           	callstack 0
  2676                           
  2677 ;; *************** function ___aldiv *****************
  2678 ;; Defined at:
  2679 ;;		line 7 in file "C:\Program Files\Microchip\xc8\v2.32\pic\sources\c99\common\aldiv.c"
  2680 ;; Parameters:    Size  Location     Type
  2681 ;;  dividend        4    0[COMRAM] long 
  2682 ;;  divisor         4    4[COMRAM] long 
  2683 ;; Auto vars:     Size  Location     Type
  2684 ;;  quotient        4   10[COMRAM] long 
  2685 ;;  sign            1    9[COMRAM] unsigned char 
  2686 ;;  counter         1    8[COMRAM] unsigned char 
  2687 ;; Return value:  Size  Location     Type
  2688 ;;                  4    0[COMRAM] long 
  2689 ;; Registers used:
  2690 ;;		wreg, status,2, status,0
  2691 ;; Tracked objects:
  2692 ;;		On entry : 0/0
  2693 ;;		On exit  : 0/0
  2694 ;;		Unchanged: 0/0
  2695 ;; Data sizes:     COMRAM   BANK0   BANK1   BANK2   BANK3   BANK4   BANK5
  2696 ;;      Params:         8       0       0       0       0       0       0
  2697 ;;      Locals:         6       0       0       0       0       0       0
  2698 ;;      Temps:          0       0       0       0       0       0       0
  2699 ;;      Totals:        14       0       0       0       0       0       0
  2700 ;;Total ram usage:       14 bytes
  2701 ;; Hardware stack levels used: 1
  2702 ;; This function calls:
  2703 ;;		Nothing
  2704 ;; This function is called by:
  2705 ;;		_pwmFrequency
  2706 ;; This function uses a non-reentrant model
  2707 ;;
  2708                           
  2709                           	psect	text12
  2710  0029F6                     __ptext12:
  2711                           	callstack 0
  2712  0029F6                     ___aldiv:
  2713                           	callstack 28
  2714  0029F6  0E00               	movlw	0
  2715  0029F8  6E0A               	movwf	___aldiv@sign^0,c
  2716  0029FA  BE08               	btfsc	(___aldiv@divisor+3)^0,7,c
  2717  0029FC  EF04  F015         	goto	u3740
  2718  002A00  EF02  F015         	goto	u3741
  2719  002A04                     u3741:
  2720  002A04  EF0E  F015         	goto	l3331
  2721  002A08                     u3740:
  2722  002A08  1E08               	comf	(___aldiv@divisor+3)^0,f,c
  2723  002A0A  1E07               	comf	(___aldiv@divisor+2)^0,f,c
  2724  002A0C  1E06               	comf	(___aldiv@divisor+1)^0,f,c
  2725  002A0E  6C05               	negf	___aldiv@divisor^0,c
  2726  002A10  0E00               	movlw	0
  2727  002A12  2206               	addwfc	(___aldiv@divisor+1)^0,f,c
  2728  002A14  2207               	addwfc	(___aldiv@divisor+2)^0,f,c
  2729  002A16  2208               	addwfc	(___aldiv@divisor+3)^0,f,c
  2730  002A18  0E01               	movlw	1
  2731  002A1A  6E0A               	movwf	___aldiv@sign^0,c
  2732  002A1C                     l3331:
  2733  002A1C  BE04               	btfsc	(___aldiv@dividend+3)^0,7,c
  2734  002A1E  EF15  F015         	goto	u3750
  2735  002A22  EF13  F015         	goto	u3751
  2736  002A26                     u3751:
  2737  002A26  EF1F  F015         	goto	l3337
  2738  002A2A                     u3750:
  2739  002A2A  1E04               	comf	(___aldiv@dividend+3)^0,f,c
  2740  002A2C  1E03               	comf	(___aldiv@dividend+2)^0,f,c
  2741  002A2E  1E02               	comf	(___aldiv@dividend+1)^0,f,c
  2742  002A30  6C01               	negf	___aldiv@dividend^0,c
  2743  002A32  0E00               	movlw	0
  2744  002A34  2202               	addwfc	(___aldiv@dividend+1)^0,f,c
  2745  002A36  2203               	addwfc	(___aldiv@dividend+2)^0,f,c
  2746  002A38  2204               	addwfc	(___aldiv@dividend+3)^0,f,c
  2747  002A3A  0E01               	movlw	1
  2748  002A3C  1A0A               	xorwf	___aldiv@sign^0,f,c
  2749  002A3E                     l3337:
  2750  002A3E  0E00               	movlw	0
  2751  002A40  6E0B               	movwf	___aldiv@quotient^0,c
  2752  002A42  0E00               	movlw	0
  2753  002A44  6E0C               	movwf	(___aldiv@quotient+1)^0,c
  2754  002A46  0E00               	movlw	0
  2755  002A48  6E0D               	movwf	(___aldiv@quotient+2)^0,c
  2756  002A4A  0E00               	movlw	0
  2757  002A4C  6E0E               	movwf	(___aldiv@quotient+3)^0,c
  2758  002A4E  5005               	movf	___aldiv@divisor^0,w,c
  2759  002A50  1006               	iorwf	(___aldiv@divisor+1)^0,w,c
  2760  002A52  1007               	iorwf	(___aldiv@divisor+2)^0,w,c
  2761  002A54  1008               	iorwf	(___aldiv@divisor+3)^0,w,c
  2762  002A56  B4D8               	btfsc	status,2,c
  2763  002A58  EF30  F015         	goto	u3761
  2764  002A5C  EF32  F015         	goto	u3760
  2765  002A60                     u3761:
  2766  002A60  EF68  F015         	goto	l3359
  2767  002A64                     u3760:
  2768  002A64  0E01               	movlw	1
  2769  002A66  6E09               	movwf	___aldiv@counter^0,c
  2770  002A68  EF3C  F015         	goto	l3345
  2771  002A6C                     l3343:
  2772  002A6C  90D8               	bcf	status,0,c
  2773  002A6E  3605               	rlcf	___aldiv@divisor^0,f,c
  2774  002A70  3606               	rlcf	(___aldiv@divisor+1)^0,f,c
  2775  002A72  3607               	rlcf	(___aldiv@divisor+2)^0,f,c
  2776  002A74  3608               	rlcf	(___aldiv@divisor+3)^0,f,c
  2777  002A76  2A09               	incf	___aldiv@counter^0,f,c
  2778  002A78                     l3345:
  2779  002A78  AE08               	btfss	(___aldiv@divisor+3)^0,7,c
  2780  002A7A  EF41  F015         	goto	u3771
  2781  002A7E  EF43  F015         	goto	u3770
  2782  002A82                     u3771:
  2783  002A82  EF36  F015         	goto	l3343
  2784  002A86                     u3770:
  2785  002A86                     l3347:
  2786  002A86  90D8               	bcf	status,0,c
  2787  002A88  360B               	rlcf	___aldiv@quotient^0,f,c
  2788  002A8A  360C               	rlcf	(___aldiv@quotient+1)^0,f,c
  2789  002A8C  360D               	rlcf	(___aldiv@quotient+2)^0,f,c
  2790  002A8E  360E               	rlcf	(___aldiv@quotient+3)^0,f,c
  2791  002A90  5005               	movf	___aldiv@divisor^0,w,c
  2792  002A92  5C01               	subwf	___aldiv@dividend^0,w,c
  2793  002A94  5006               	movf	(___aldiv@divisor+1)^0,w,c
  2794  002A96  5802               	subwfb	(___aldiv@dividend+1)^0,w,c
  2795  002A98  5007               	movf	(___aldiv@divisor+2)^0,w,c
  2796  002A9A  5803               	subwfb	(___aldiv@dividend+2)^0,w,c
  2797  002A9C  5008               	movf	(___aldiv@divisor+3)^0,w,c
  2798  002A9E  5804               	subwfb	(___aldiv@dividend+3)^0,w,c
  2799  002AA0  A0D8               	btfss	status,0,c
  2800  002AA2  EF55  F015         	goto	u3781
  2801  002AA6  EF57  F015         	goto	u3780
  2802  002AAA                     u3781:
  2803  002AAA  EF60  F015         	goto	l3355
  2804  002AAE                     u3780:
  2805  002AAE  5005               	movf	___aldiv@divisor^0,w,c
  2806  002AB0  5E01               	subwf	___aldiv@dividend^0,f,c
  2807  002AB2  5006               	movf	(___aldiv@divisor+1)^0,w,c
  2808  002AB4  5A02               	subwfb	(___aldiv@dividend+1)^0,f,c
  2809  002AB6  5007               	movf	(___aldiv@divisor+2)^0,w,c
  2810  002AB8  5A03               	subwfb	(___aldiv@dividend+2)^0,f,c
  2811  002ABA  5008               	movf	(___aldiv@divisor+3)^0,w,c
  2812  002ABC  5A04               	subwfb	(___aldiv@dividend+3)^0,f,c
  2813  002ABE  800B               	bsf	___aldiv@quotient^0,0,c
  2814  002AC0                     l3355:
  2815  002AC0  90D8               	bcf	status,0,c
  2816  002AC2  3208               	rrcf	(___aldiv@divisor+3)^0,f,c
  2817  002AC4  3207               	rrcf	(___aldiv@divisor+2)^0,f,c
  2818  002AC6  3206               	rrcf	(___aldiv@divisor+1)^0,f,c
  2819  002AC8  3205               	rrcf	___aldiv@divisor^0,f,c
  2820  002ACA  2E09               	decfsz	___aldiv@counter^0,f,c
  2821  002ACC  EF43  F015         	goto	l3347
  2822  002AD0                     l3359:
  2823  002AD0  500A               	movf	___aldiv@sign^0,w,c
  2824  002AD2  B4D8               	btfsc	status,2,c
  2825  002AD4  EF6E  F015         	goto	u3791
  2826  002AD8  EF70  F015         	goto	u3790
  2827  002ADC                     u3791:
  2828  002ADC  EF78  F015         	goto	l3363
  2829  002AE0                     u3790:
  2830  002AE0  1E0E               	comf	(___aldiv@quotient+3)^0,f,c
  2831  002AE2  1E0D               	comf	(___aldiv@quotient+2)^0,f,c
  2832  002AE4  1E0C               	comf	(___aldiv@quotient+1)^0,f,c
  2833  002AE6  6C0B               	negf	___aldiv@quotient^0,c
  2834  002AE8  0E00               	movlw	0
  2835  002AEA  220C               	addwfc	(___aldiv@quotient+1)^0,f,c
  2836  002AEC  220D               	addwfc	(___aldiv@quotient+2)^0,f,c
  2837  002AEE  220E               	addwfc	(___aldiv@quotient+3)^0,f,c
  2838  002AF0                     l3363:
  2839  002AF0  C00B  F001         	movff	___aldiv@quotient,?___aldiv
  2840  002AF4  C00C  F002         	movff	___aldiv@quotient+1,?___aldiv+1
  2841  002AF8  C00D  F003         	movff	___aldiv@quotient+2,?___aldiv+2
  2842  002AFC  C00E  F004         	movff	___aldiv@quotient+3,?___aldiv+3
  2843  002B00  0012               	return		;funcret
  2844  002B02                     __end_of___aldiv:
  2845                           	callstack 0
  2846                           
  2847 ;; *************** function _lcdInit *****************
  2848 ;; Defined at:
  2849 ;;		line 79 in file "lcd.c"
  2850 ;; Parameters:    Size  Location     Type
  2851 ;;		None
  2852 ;; Auto vars:     Size  Location     Type
  2853 ;;		None
  2854 ;; Return value:  Size  Location     Type
  2855 ;;                  1    wreg      void 
  2856 ;; Registers used:
  2857 ;;		wreg, status,2, status,0, cstack
  2858 ;; Tracked objects:
  2859 ;;		On entry : 0/0
  2860 ;;		On exit  : 0/0
  2861 ;;		Unchanged: 0/0
  2862 ;; Data sizes:     COMRAM   BANK0   BANK1   BANK2   BANK3   BANK4   BANK5
  2863 ;;      Params:         0       0       0       0       0       0       0
  2864 ;;      Locals:         0       0       0       0       0       0       0
  2865 ;;      Temps:          0       0       0       0       0       0       0
  2866 ;;      Totals:         0       0       0       0       0       0       0
  2867 ;;Total ram usage:        0 bytes
  2868 ;; Hardware stack levels used: 1
  2869 ;; Hardware stack levels required when called: 5
  2870 ;; This function calls:
  2871 ;;		_delayMicro
  2872 ;;		_delayMili
  2873 ;;		_lcdCommand
  2874 ;;		_pinMode
  2875 ;;		_pushNibble
  2876 ;;		_soInit
  2877 ;; This function is called by:
  2878 ;;		_main
  2879 ;; This function uses a non-reentrant model
  2880 ;;
  2881                           
  2882                           	psect	text13
  2883  002F6E                     __ptext13:
  2884                           	callstack 0
  2885  002F6E                     _lcdInit:
  2886                           	callstack 25
  2887  002F6E                     
  2888                           ;lcd.c: 80:  pinMode(PIN_D4, 0);
  2889  002F6E  0E00               	movlw	0
  2890  002F70  6E02               	movwf	(pinMode@pin+1)^0,c
  2891  002F72  0E1C               	movlw	28
  2892  002F74  6E01               	movwf	pinMode@pin^0,c
  2893  002F76  0E00               	movlw	0
  2894  002F78  6E04               	movwf	(pinMode@type+1)^0,c
  2895  002F7A  0E00               	movlw	0
  2896  002F7C  6E03               	movwf	pinMode@type^0,c
  2897  002F7E  EC23  F010         	call	_pinMode	;wreg free
  2898                           
  2899                           ;lcd.c: 81:  pinMode(PIN_D5, 0);
  2900  002F82  0E00               	movlw	0
  2901  002F84  6E02               	movwf	(pinMode@pin+1)^0,c
  2902  002F86  0E1D               	movlw	29
  2903  002F88  6E01               	movwf	pinMode@pin^0,c
  2904  002F8A  0E00               	movlw	0
  2905  002F8C  6E04               	movwf	(pinMode@type+1)^0,c
  2906  002F8E  0E00               	movlw	0
  2907  002F90  6E03               	movwf	pinMode@type^0,c
  2908  002F92  EC23  F010         	call	_pinMode	;wreg free
  2909                           
  2910                           ;lcd.c: 82:  soInit();
  2911  002F96  ECF8  F01B         	call	_soInit	;wreg free
  2912                           
  2913                           ;lcd.c: 83:  delayMili(15);
  2914  002F9A  0E00               	movlw	0
  2915  002F9C  6E02               	movwf	(delayMili@a+1)^0,c
  2916  002F9E  0E0F               	movlw	15
  2917  002FA0  6E01               	movwf	delayMili@a^0,c
  2918  002FA2  EC84  F01C         	call	_delayMili	;wreg free
  2919                           
  2920                           ;lcd.c: 85:  pushNibble(0x03, 0);
  2921  002FA6  0E00               	movlw	0
  2922  002FA8  6E0B               	movwf	(pushNibble@rs+1)^0,c
  2923  002FAA  0E00               	movlw	0
  2924  002FAC  6E0A               	movwf	pushNibble@rs^0,c
  2925  002FAE  0E03               	movlw	3
  2926  002FB0  ECEC  F01C         	call	_pushNibble
  2927                           
  2928                           ;lcd.c: 86:  delayMili(5);
  2929  002FB4  0E00               	movlw	0
  2930  002FB6  6E02               	movwf	(delayMili@a+1)^0,c
  2931  002FB8  0E05               	movlw	5
  2932  002FBA  6E01               	movwf	delayMili@a^0,c
  2933  002FBC  EC84  F01C         	call	_delayMili	;wreg free
  2934                           
  2935                           ;lcd.c: 87:  pushNibble(0x03, 0);
  2936  002FC0  0E00               	movlw	0
  2937  002FC2  6E0B               	movwf	(pushNibble@rs+1)^0,c
  2938  002FC4  0E00               	movlw	0
  2939  002FC6  6E0A               	movwf	pushNibble@rs^0,c
  2940  002FC8  0E03               	movlw	3
  2941  002FCA  ECEC  F01C         	call	_pushNibble
  2942  002FCE                     
  2943                           ;lcd.c: 88:  delayMicro(160);
  2944  002FCE  0E00               	movlw	0
  2945  002FD0  6E02               	movwf	(delayMicro@a+1)^0,c
  2946  002FD2  0EA0               	movlw	160
  2947  002FD4  6E01               	movwf	delayMicro@a^0,c
  2948  002FD6  EC31  F01D         	call	_delayMicro	;wreg free
  2949  002FDA                     
  2950                           ;lcd.c: 89:  pushNibble(0x03, 0);
  2951  002FDA  0E00               	movlw	0
  2952  002FDC  6E0B               	movwf	(pushNibble@rs+1)^0,c
  2953  002FDE  0E00               	movlw	0
  2954  002FE0  6E0A               	movwf	pushNibble@rs^0,c
  2955  002FE2  0E03               	movlw	3
  2956  002FE4  ECEC  F01C         	call	_pushNibble
  2957                           
  2958                           ;lcd.c: 90:  delayMicro(160);
  2959  002FE8  0E00               	movlw	0
  2960  002FEA  6E02               	movwf	(delayMicro@a+1)^0,c
  2961  002FEC  0EA0               	movlw	160
  2962  002FEE  6E01               	movwf	delayMicro@a^0,c
  2963  002FF0  EC31  F01D         	call	_delayMicro	;wreg free
  2964  002FF4                     
  2965                           ;lcd.c: 92:  pushNibble(0x02, 0);
  2966  002FF4  0E00               	movlw	0
  2967  002FF6  6E0B               	movwf	(pushNibble@rs+1)^0,c
  2968  002FF8  0E00               	movlw	0
  2969  002FFA  6E0A               	movwf	pushNibble@rs^0,c
  2970  002FFC  0E02               	movlw	2
  2971  002FFE  ECEC  F01C         	call	_pushNibble
  2972  003002                     
  2973                           ;lcd.c: 93:  delayMili(10);
  2974  003002  0E00               	movlw	0
  2975  003004  6E02               	movwf	(delayMili@a+1)^0,c
  2976  003006  0E0A               	movlw	10
  2977  003008  6E01               	movwf	delayMili@a^0,c
  2978  00300A  EC84  F01C         	call	_delayMili	;wreg free
  2979  00300E                     
  2980                           ;lcd.c: 95:  lcdCommand(0x28);
  2981  00300E  0E28               	movlw	40
  2982  003010  EC0E  F01D         	call	_lcdCommand
  2983  003014                     
  2984                           ;lcd.c: 96:  lcdCommand(0x08 + 0x04);
  2985  003014  0E0C               	movlw	12
  2986  003016  EC0E  F01D         	call	_lcdCommand
  2987  00301A                     
  2988                           ;lcd.c: 97:  lcdCommand(0x01);
  2989  00301A  0E01               	movlw	1
  2990  00301C  EC0E  F01D         	call	_lcdCommand
  2991  003020  0012               	return		;funcret
  2992  003022                     __end_of_lcdInit:
  2993                           	callstack 0
  2994                           
  2995 ;; *************** function _pushNibble *****************
  2996 ;; Defined at:
  2997 ;;		line 25 in file "lcd.c"
  2998 ;; Parameters:    Size  Location     Type
  2999 ;;  value           1    wreg     unsigned char 
  3000 ;;  rs              2    9[COMRAM] int 
  3001 ;; Auto vars:     Size  Location     Type
  3002 ;;  value           1   11[COMRAM] unsigned char 
  3003 ;; Return value:  Size  Location     Type
  3004 ;;                  1    wreg      void 
  3005 ;; Registers used:
  3006 ;;		wreg, status,2, status,0, cstack
  3007 ;; Tracked objects:
  3008 ;;		On entry : 0/0
  3009 ;;		On exit  : 0/0
  3010 ;;		Unchanged: 0/0
  3011 ;; Data sizes:     COMRAM   BANK0   BANK1   BANK2   BANK3   BANK4   BANK5
  3012 ;;      Params:         2       0       0       0       0       0       0
  3013 ;;      Locals:         1       0       0       0       0       0       0
  3014 ;;      Temps:          0       0       0       0       0       0       0
  3015 ;;      Totals:         3       0       0       0       0       0       0
  3016 ;;Total ram usage:        3 bytes
  3017 ;; Hardware stack levels used: 1
  3018 ;; Hardware stack levels required when called: 3
  3019 ;; This function calls:
  3020 ;;		_digitalWrite
  3021 ;;		_pulseEnablePin
  3022 ;;		_soWrite
  3023 ;; This function is called by:
  3024 ;;		_lcdInit
  3025 ;; This function uses a non-reentrant model
  3026 ;;
  3027                           
  3028                           	psect	text14
  3029  0039D8                     __ptext14:
  3030                           	callstack 0
  3031  0039D8                     _pushNibble:
  3032                           	callstack 26
  3033                           
  3034                           ;incstack = 0
  3035                           ;pushNibble@value stored from wreg
  3036  0039D8  6E0C               	movwf	pushNibble@value^0,c
  3037  0039DA                     
  3038                           ;lcd.c: 26:  soWrite(value);
  3039  0039DA  C00C  F007         	movff	pushNibble@value,soWrite@value
  3040  0039DE  6A08               	clrf	(soWrite@value+1)^0,c
  3041  0039E0  EC4A  F01B         	call	_soWrite	;wreg free
  3042                           
  3043                           ;lcd.c: 27:  digitalWrite(PIN_D5, rs);
  3044  0039E4  0E00               	movlw	0
  3045  0039E6  6E02               	movwf	(digitalWrite@pin+1)^0,c
  3046  0039E8  0E1D               	movlw	29
  3047  0039EA  6E01               	movwf	digitalWrite@pin^0,c
  3048  0039EC  C00A  F003         	movff	pushNibble@rs,digitalWrite@value
  3049  0039F0  C00B  F004         	movff	pushNibble@rs+1,digitalWrite@value+1
  3050  0039F4  ECFC  F00E         	call	_digitalWrite	;wreg free
  3051                           
  3052                           ;lcd.c: 28:  pulseEnablePin();
  3053  0039F8  ECB8  F01B         	call	_pulseEnablePin	;wreg free
  3054  0039FC  0012               	return		;funcret
  3055  0039FE                     __end_of_pushNibble:
  3056                           	callstack 0
  3057                           
  3058 ;; *************** function _kpInit *****************
  3059 ;; Defined at:
  3060 ;;		line 54 in file "keypad.c"
  3061 ;; Parameters:    Size  Location     Type
  3062 ;;		None
  3063 ;; Auto vars:     Size  Location     Type
  3064 ;;		None
  3065 ;; Return value:  Size  Location     Type
  3066 ;;                  1    wreg      void 
  3067 ;; Registers used:
  3068 ;;		wreg, status,2, status,0, cstack
  3069 ;; Tracked objects:
  3070 ;;		On entry : 0/0
  3071 ;;		On exit  : 0/0
  3072 ;;		Unchanged: 0/0
  3073 ;; Data sizes:     COMRAM   BANK0   BANK1   BANK2   BANK3   BANK4   BANK5
  3074 ;;      Params:         0       0       0       0       0       0       0
  3075 ;;      Locals:         0       0       0       0       0       0       0
  3076 ;;      Temps:          0       0       0       0       0       0       0
  3077 ;;      Totals:         0       0       0       0       0       0       0
  3078 ;;Total ram usage:        0 bytes
  3079 ;; Hardware stack levels used: 1
  3080 ;; Hardware stack levels required when called: 2
  3081 ;; This function calls:
  3082 ;;		_pinMode
  3083 ;;		_soInit
  3084 ;; This function is called by:
  3085 ;;		_main
  3086 ;; This function uses a non-reentrant model
  3087 ;;
  3088                           
  3089                           	psect	text15
  3090  0038D6                     __ptext15:
  3091                           	callstack 0
  3092  0038D6                     _kpInit:
  3093                           	callstack 28
  3094  0038D6                     
  3095                           ;keypad.c: 55:   soInit();
  3096  0038D6  ECF8  F01B         	call	_soInit	;wreg free
  3097                           
  3098                           ;keypad.c: 56:   pinMode(PIN_B2, 1);
  3099  0038DA  0E00               	movlw	0
  3100  0038DC  6E02               	movwf	(pinMode@pin+1)^0,c
  3101  0038DE  0E0A               	movlw	10
  3102  0038E0  6E01               	movwf	pinMode@pin^0,c
  3103  0038E2  0E00               	movlw	0
  3104  0038E4  6E04               	movwf	(pinMode@type+1)^0,c
  3105  0038E6  0E01               	movlw	1
  3106  0038E8  6E03               	movwf	pinMode@type^0,c
  3107  0038EA  EC23  F010         	call	_pinMode	;wreg free
  3108                           
  3109                           ;keypad.c: 57:   pinMode(PIN_B1, 1);
  3110  0038EE  0E00               	movlw	0
  3111  0038F0  6E02               	movwf	(pinMode@pin+1)^0,c
  3112  0038F2  0E09               	movlw	9
  3113  0038F4  6E01               	movwf	pinMode@pin^0,c
  3114  0038F6  0E00               	movlw	0
  3115  0038F8  6E04               	movwf	(pinMode@type+1)^0,c
  3116  0038FA  0E01               	movlw	1
  3117  0038FC  6E03               	movwf	pinMode@type^0,c
  3118  0038FE  EC23  F010         	call	_pinMode	;wreg free
  3119  003902                     
  3120                           ;keypad.c: 58:   ADCON1 = 0b00001100;
  3121  003902  0E0C               	movlw	12
  3122  003904  6EC1               	movwf	193,c	;volatile
  3123  003906  0012               	return		;funcret
  3124  003908                     __end_of_kpInit:
  3125                           	callstack 0
  3126                           
  3127 ;; *************** function _soInit *****************
  3128 ;; Defined at:
  3129 ;;		line 3 in file "so.c"
  3130 ;; Parameters:    Size  Location     Type
  3131 ;;		None
  3132 ;; Auto vars:     Size  Location     Type
  3133 ;;		None
  3134 ;; Return value:  Size  Location     Type
  3135 ;;                  1    wreg      void 
  3136 ;; Registers used:
  3137 ;;		wreg, status,2, status,0, cstack
  3138 ;; Tracked objects:
  3139 ;;		On entry : 0/0
  3140 ;;		On exit  : 0/0
  3141 ;;		Unchanged: 0/0
  3142 ;; Data sizes:     COMRAM   BANK0   BANK1   BANK2   BANK3   BANK4   BANK5
  3143 ;;      Params:         0       0       0       0       0       0       0
  3144 ;;      Locals:         0       0       0       0       0       0       0
  3145 ;;      Temps:          0       0       0       0       0       0       0
  3146 ;;      Totals:         0       0       0       0       0       0       0
  3147 ;;Total ram usage:        0 bytes
  3148 ;; Hardware stack levels used: 1
  3149 ;; Hardware stack levels required when called: 1
  3150 ;; This function calls:
  3151 ;;		_pinMode
  3152 ;; This function is called by:
  3153 ;;		_kpInit
  3154 ;;		_lcdInit
  3155 ;;		_ssdInit
  3156 ;; This function uses a non-reentrant model
  3157 ;;
  3158                           
  3159                           	psect	text16
  3160  0037F0                     __ptext16:
  3161                           	callstack 0
  3162  0037F0                     _soInit:
  3163                           	callstack 28
  3164  0037F0                     
  3165                           ;so.c: 4:  pinMode(PIN_D7, 0);
  3166  0037F0  0E00               	movlw	0
  3167  0037F2  6E02               	movwf	(pinMode@pin+1)^0,c
  3168  0037F4  0E1F               	movlw	31
  3169  0037F6  6E01               	movwf	pinMode@pin^0,c
  3170  0037F8  0E00               	movlw	0
  3171  0037FA  6E04               	movwf	(pinMode@type+1)^0,c
  3172  0037FC  0E00               	movlw	0
  3173  0037FE  6E03               	movwf	pinMode@type^0,c
  3174  003800  EC23  F010         	call	_pinMode	;wreg free
  3175                           
  3176                           ;so.c: 5:  pinMode(PIN_B0, 0);
  3177  003804  0E00               	movlw	0
  3178  003806  6E02               	movwf	(pinMode@pin+1)^0,c
  3179  003808  0E08               	movlw	8
  3180  00380A  6E01               	movwf	pinMode@pin^0,c
  3181  00380C  0E00               	movlw	0
  3182  00380E  6E04               	movwf	(pinMode@type+1)^0,c
  3183  003810  0E00               	movlw	0
  3184  003812  6E03               	movwf	pinMode@type^0,c
  3185  003814  EC23  F010         	call	_pinMode	;wreg free
  3186                           
  3187                           ;so.c: 6:  pinMode(PIN_D6, 0);
  3188  003818  0E00               	movlw	0
  3189  00381A  6E02               	movwf	(pinMode@pin+1)^0,c
  3190  00381C  0E1E               	movlw	30
  3191  00381E  6E01               	movwf	pinMode@pin^0,c
  3192  003820  0E00               	movlw	0
  3193  003822  6E04               	movwf	(pinMode@type+1)^0,c
  3194  003824  0E00               	movlw	0
  3195  003826  6E03               	movwf	pinMode@type^0,c
  3196  003828  EC23  F010         	call	_pinMode	;wreg free
  3197  00382C  0012               	return		;funcret
  3198  00382E                     __end_of_soInit:
  3199                           	callstack 0
  3200                           
  3201 ;; *************** function _instrucaoLCD *****************
  3202 ;; Defined at:
  3203 ;;		line 114 in file "main.c"
  3204 ;; Parameters:    Size  Location     Type
  3205 ;;		None
  3206 ;; Auto vars:     Size  Location     Type
  3207 ;;  j               2   22[COMRAM] int 
  3208 ;;  i               2   20[COMRAM] int 
  3209 ;; Return value:  Size  Location     Type
  3210 ;;                  1    wreg      void 
  3211 ;; Registers used:
  3212 ;;		wreg, status,2, status,0, tblptrl, tblptrh, tblptru, cstack
  3213 ;; Tracked objects:
  3214 ;;		On entry : 0/0
  3215 ;;		On exit  : 0/0
  3216 ;;		Unchanged: 0/0
  3217 ;; Data sizes:     COMRAM   BANK0   BANK1   BANK2   BANK3   BANK4   BANK5
  3218 ;;      Params:         0       0       0       0       0       0       0
  3219 ;;      Locals:         4       0       0       0       0       0       0
  3220 ;;      Temps:          0       0       0       0       0       0       0
  3221 ;;      Totals:         4       0       0       0       0       0       0
  3222 ;;Total ram usage:        4 bytes
  3223 ;; Hardware stack levels used: 1
  3224 ;; Hardware stack levels required when called: 6
  3225 ;; This function calls:
  3226 ;;		_lcdChar
  3227 ;;		_lcdCommand
  3228 ;;		_lcdPosition
  3229 ;;		_lcdString
  3230 ;; This function is called by:
  3231 ;;		_main
  3232 ;; This function uses a non-reentrant model
  3233 ;;
  3234                           
  3235                           	psect	text17
  3236  002D0C                     __ptext17:
  3237                           	callstack 0
  3238  002D0C                     _instrucaoLCD:
  3239                           	callstack 24
  3240  002D0C                     
  3241                           ;main.c: 115:     lcdCommand(0x01);
  3242  002D0C  0E01               	movlw	1
  3243  002D0E  EC0E  F01D         	call	_lcdCommand
  3244                           
  3245                           ;main.c: 116:     lcdChar(0b01111111);
  3246  002D12  0E7F               	movlw	127
  3247  002D14  ECFF  F01C         	call	_lcdChar
  3248  002D18                     
  3249                           ;main.c: 117:     lcdString("Prev.");
  3250  002D18  0E8F               	movlw	low STR_6
  3251  002D1A  6E0F               	movwf	lcdString@msg^0,c
  3252  002D1C  0E06               	movlw	high STR_6
  3253  002D1E  6E10               	movwf	(lcdString@msg+1)^0,c
  3254  002D20  ECF7  F01A         	call	_lcdString	;wreg free
  3255  002D24                     
  3256                           ;main.c: 118:     lcdPosition(0,11);
  3257  002D24  0E00               	movlw	0
  3258  002D26  6E10               	movwf	(lcdPosition@line+1)^0,c
  3259  002D28  0E00               	movlw	0
  3260  002D2A  6E0F               	movwf	lcdPosition@line^0,c
  3261  002D2C  0E00               	movlw	0
  3262  002D2E  6E12               	movwf	(lcdPosition@col+1)^0,c
  3263  002D30  0E0B               	movlw	11
  3264  002D32  6E11               	movwf	lcdPosition@col^0,c
  3265  002D34  EC17  F01C         	call	_lcdPosition	;wreg free
  3266                           
  3267                           ;main.c: 119:     lcdString("Next");
  3268  002D38  0E95               	movlw	low STR_7
  3269  002D3A  6E0F               	movwf	lcdString@msg^0,c
  3270  002D3C  0E06               	movlw	high STR_7
  3271  002D3E  6E10               	movwf	(lcdString@msg+1)^0,c
  3272  002D40  ECF7  F01A         	call	_lcdString	;wreg free
  3273  002D44                     
  3274                           ;main.c: 120:     lcdChar(0b01111110);
  3275  002D44  0E7E               	movlw	126
  3276  002D46  ECFF  F01C         	call	_lcdChar
  3277  002D4A                     
  3278                           ;main.c: 121:     lcdCommand(0xC0);
  3279  002D4A  0EC0               	movlw	192
  3280  002D4C  EC0E  F01D         	call	_lcdCommand
  3281  002D50                     
  3282                           ;main.c: 122:     lcdPosition(1,2);
  3283  002D50  0E00               	movlw	0
  3284  002D52  6E10               	movwf	(lcdPosition@line+1)^0,c
  3285  002D54  0E01               	movlw	1
  3286  002D56  6E0F               	movwf	lcdPosition@line^0,c
  3287  002D58  0E00               	movlw	0
  3288  002D5A  6E12               	movwf	(lcdPosition@col+1)^0,c
  3289  002D5C  0E02               	movlw	2
  3290  002D5E  6E11               	movwf	lcdPosition@col^0,c
  3291  002D60  EC17  F01C         	call	_lcdPosition	;wreg free
  3292  002D64                     
  3293                           ;main.c: 123:     lcdString("L");
  3294  002D64  0EB3               	movlw	low STR_8
  3295  002D66  6E0F               	movwf	lcdString@msg^0,c
  3296  002D68  0E06               	movlw	high STR_8
  3297  002D6A  6E10               	movwf	(lcdString@msg+1)^0,c
  3298  002D6C  ECF7  F01A         	call	_lcdString	;wreg free
  3299                           
  3300                           ;main.c: 124:     lcdPosition(1,13);
  3301  002D70  0E00               	movlw	0
  3302  002D72  6E10               	movwf	(lcdPosition@line+1)^0,c
  3303  002D74  0E01               	movlw	1
  3304  002D76  6E0F               	movwf	lcdPosition@line^0,c
  3305  002D78  0E00               	movlw	0
  3306  002D7A  6E12               	movwf	(lcdPosition@col+1)^0,c
  3307  002D7C  0E0D               	movlw	13
  3308  002D7E  6E11               	movwf	lcdPosition@col^0,c
  3309  002D80  EC17  F01C         	call	_lcdPosition	;wreg free
  3310  002D84                     
  3311                           ;main.c: 125:     lcdString("R");
  3312  002D84  0EB5               	movlw	low STR_9
  3313  002D86  6E0F               	movwf	lcdString@msg^0,c
  3314  002D88  0E06               	movlw	high STR_9
  3315  002D8A  6E10               	movwf	(lcdString@msg+1)^0,c
  3316  002D8C  ECF7  F01A         	call	_lcdString	;wreg free
  3317  002D90                     
  3318                           ;main.c: 126:     for(int i=0; i<500;i++){
  3319  002D90  0E00               	movlw	0
  3320  002D92  6E16               	movwf	(instrucaoLCD@i+1)^0,c
  3321  002D94  0E00               	movlw	0
  3322  002D96  6E15               	movwf	instrucaoLCD@i^0,c
  3323  002D98                     l4143:
  3324                           
  3325                           ;main.c: 127:         for(int j=0;j<300;j++){}
  3326  002D98  0E00               	movlw	0
  3327  002D9A  6E18               	movwf	(instrucaoLCD@j+1)^0,c
  3328  002D9C  0E00               	movlw	0
  3329  002D9E  6E17               	movwf	instrucaoLCD@j^0,c
  3330  002DA0                     l4149:
  3331  002DA0  4A17               	infsnz	instrucaoLCD@j^0,f,c
  3332  002DA2  2A18               	incf	(instrucaoLCD@j+1)^0,f,c
  3333  002DA4  BE18               	btfsc	(instrucaoLCD@j+1)^0,7,c
  3334  002DA6  EFDE  F016         	goto	u4811
  3335  002DAA  0E2C               	movlw	44
  3336  002DAC  5C17               	subwf	instrucaoLCD@j^0,w,c
  3337  002DAE  0E01               	movlw	1
  3338  002DB0  5818               	subwfb	(instrucaoLCD@j+1)^0,w,c
  3339  002DB2  A0D8               	btfss	status,0,c
  3340  002DB4  EFDE  F016         	goto	u4811
  3341  002DB8  EFE0  F016         	goto	u4810
  3342  002DBC                     u4811:
  3343  002DBC  EFD0  F016         	goto	l4149
  3344  002DC0                     u4810:
  3345  002DC0                     
  3346                           ;main.c: 128:     }
  3347  002DC0  4A15               	infsnz	instrucaoLCD@i^0,f,c
  3348  002DC2  2A16               	incf	(instrucaoLCD@i+1)^0,f,c
  3349  002DC4  BE16               	btfsc	(instrucaoLCD@i+1)^0,7,c
  3350  002DC6  EFEE  F016         	goto	u4821
  3351  002DCA  0EF4               	movlw	244
  3352  002DCC  5C15               	subwf	instrucaoLCD@i^0,w,c
  3353  002DCE  0E01               	movlw	1
  3354  002DD0  5816               	subwfb	(instrucaoLCD@i+1)^0,w,c
  3355  002DD2  A0D8               	btfss	status,0,c
  3356  002DD4  EFEE  F016         	goto	u4821
  3357  002DD8  EFF0  F016         	goto	u4820
  3358  002DDC                     u4821:
  3359  002DDC  EFCC  F016         	goto	l4143
  3360  002DE0                     u4820:
  3361  002DE0  0012               	return		;funcret
  3362  002DE2                     __end_of_instrucaoLCD:
  3363                           	callstack 0
  3364                           
  3365 ;; *************** function _infoTemp *****************
  3366 ;; Defined at:
  3367 ;;		line 228 in file "main.c"
  3368 ;; Parameters:    Size  Location     Type
  3369 ;;		None
  3370 ;; Auto vars:     Size  Location     Type
  3371 ;;		None
  3372 ;; Return value:  Size  Location     Type
  3373 ;;                  1    wreg      void 
  3374 ;; Registers used:
  3375 ;;		wreg, status,2, status,0, tblptrl, tblptrh, tblptru, cstack
  3376 ;; Tracked objects:
  3377 ;;		On entry : 0/0
  3378 ;;		On exit  : 0/0
  3379 ;;		Unchanged: 0/0
  3380 ;; Data sizes:     COMRAM   BANK0   BANK1   BANK2   BANK3   BANK4   BANK5
  3381 ;;      Params:         0       0       0       0       0       0       0
  3382 ;;      Locals:         0       0       0       0       0       0       0
  3383 ;;      Temps:          0       0       0       0       0       0       0
  3384 ;;      Totals:         0       0       0       0       0       0       0
  3385 ;;Total ram usage:        0 bytes
  3386 ;; Hardware stack levels used: 1
  3387 ;; Hardware stack levels required when called: 6
  3388 ;; This function calls:
  3389 ;;		_infoGeral
  3390 ;;		_lcdCommand
  3391 ;;		_lcdNumber
  3392 ;;		_lcdString
  3393 ;; This function is called by:
  3394 ;;		_main
  3395 ;; This function uses a non-reentrant model
  3396 ;;
  3397                           
  3398                           	psect	text18
  3399  0033C4                     __ptext18:
  3400                           	callstack 0
  3401  0033C4                     _infoTemp:
  3402                           	callstack 24
  3403  0033C4                     
  3404                           ;main.c: 229:     lcdString("T1:");
  3405  0033C4  0E9E               	movlw	low STR_20
  3406  0033C6  6E0F               	movwf	lcdString@msg^0,c
  3407  0033C8  0E06               	movlw	high STR_20
  3408  0033CA  6E10               	movwf	(lcdString@msg+1)^0,c
  3409  0033CC  ECF7  F01A         	call	_lcdString	;wreg free
  3410  0033D0                     
  3411                           ;main.c: 230:     lcdNumber(tp[0]);
  3412  0033D0  C0A8  F063         	movff	_tp,lcdNumber@value
  3413  0033D4  6A64               	clrf	(lcdNumber@value+1)^0,c
  3414  0033D6  EC72  F019         	call	_lcdNumber	;wreg free
  3415  0033DA                     
  3416                           ;main.c: 231:     lcdString("    T2:");
  3417  0033DA  0E6A               	movlw	low STR_21
  3418  0033DC  6E0F               	movwf	lcdString@msg^0,c
  3419  0033DE  0E06               	movlw	high STR_21
  3420  0033E0  6E10               	movwf	(lcdString@msg+1)^0,c
  3421  0033E2  ECF7  F01A         	call	_lcdString	;wreg free
  3422                           
  3423                           ;main.c: 232:     lcdNumber(tp[1]);
  3424  0033E6  C0A9  F063         	movff	_tp+1,lcdNumber@value
  3425  0033EA  6A64               	clrf	(lcdNumber@value+1)^0,c
  3426  0033EC  EC72  F019         	call	_lcdNumber	;wreg free
  3427                           
  3428                           ;main.c: 233:     lcdCommand(0xC0);
  3429  0033F0  0EC0               	movlw	192
  3430  0033F2  EC0E  F01D         	call	_lcdCommand
  3431  0033F6                     
  3432                           ;main.c: 234:     lcdString("T3:");
  3433  0033F6  0EA6               	movlw	low STR_22
  3434  0033F8  6E0F               	movwf	lcdString@msg^0,c
  3435  0033FA  0E06               	movlw	high STR_22
  3436  0033FC  6E10               	movwf	(lcdString@msg+1)^0,c
  3437  0033FE  ECF7  F01A         	call	_lcdString	;wreg free
  3438  003402                     
  3439                           ;main.c: 235:     lcdNumber(tp[2]);
  3440  003402  C0AA  F063         	movff	_tp+2,lcdNumber@value
  3441  003406  6A64               	clrf	(lcdNumber@value+1)^0,c
  3442  003408  EC72  F019         	call	_lcdNumber	;wreg free
  3443                           
  3444                           ;main.c: 236:     lcdString("    T4:");
  3445  00340C  0E7A               	movlw	low STR_23
  3446  00340E  6E0F               	movwf	lcdString@msg^0,c
  3447  003410  0E06               	movlw	high STR_23
  3448  003412  6E10               	movwf	(lcdString@msg+1)^0,c
  3449  003414  ECF7  F01A         	call	_lcdString	;wreg free
  3450  003418                     
  3451                           ;main.c: 237:     lcdNumber(tp[3]);
  3452  003418  C0AB  F063         	movff	_tp+3,lcdNumber@value
  3453  00341C  6A64               	clrf	(lcdNumber@value+1)^0,c
  3454  00341E  EC72  F019         	call	_lcdNumber	;wreg free
  3455  003422                     
  3456                           ;main.c: 238:     infoGeral();
  3457  003422  EC50  F01C         	call	_infoGeral	;wreg free
  3458  003426  0012               	return		;funcret
  3459  003428                     __end_of_infoTemp:
  3460                           	callstack 0
  3461                           
  3462 ;; *************** function _infoPress *****************
  3463 ;; Defined at:
  3464 ;;		line 215 in file "main.c"
  3465 ;; Parameters:    Size  Location     Type
  3466 ;;		None
  3467 ;; Auto vars:     Size  Location     Type
  3468 ;;		None
  3469 ;; Return value:  Size  Location     Type
  3470 ;;                  1    wreg      void 
  3471 ;; Registers used:
  3472 ;;		wreg, status,2, status,0, tblptrl, tblptrh, tblptru, cstack
  3473 ;; Tracked objects:
  3474 ;;		On entry : 0/0
  3475 ;;		On exit  : 0/0
  3476 ;;		Unchanged: 0/0
  3477 ;; Data sizes:     COMRAM   BANK0   BANK1   BANK2   BANK3   BANK4   BANK5
  3478 ;;      Params:         0       0       0       0       0       0       0
  3479 ;;      Locals:         0       0       0       0       0       0       0
  3480 ;;      Temps:          0       0       0       0       0       0       0
  3481 ;;      Totals:         0       0       0       0       0       0       0
  3482 ;;Total ram usage:        0 bytes
  3483 ;; Hardware stack levels used: 1
  3484 ;; Hardware stack levels required when called: 6
  3485 ;; This function calls:
  3486 ;;		_infoGeral
  3487 ;;		_lcdCommand
  3488 ;;		_lcdNumber
  3489 ;;		_lcdString
  3490 ;; This function is called by:
  3491 ;;		_main
  3492 ;; This function uses a non-reentrant model
  3493 ;;
  3494                           
  3495                           	psect	text19
  3496  003428                     __ptext19:
  3497                           	callstack 0
  3498  003428                     _infoPress:
  3499                           	callstack 24
  3500  003428                     
  3501                           ;main.c: 216:     lcdString("P1:");
  3502  003428  0E9A               	movlw	low STR_16
  3503  00342A  6E0F               	movwf	lcdString@msg^0,c
  3504  00342C  0E06               	movlw	high STR_16
  3505  00342E  6E10               	movwf	(lcdString@msg+1)^0,c
  3506  003430  ECF7  F01A         	call	_lcdString	;wreg free
  3507  003434                     
  3508                           ;main.c: 217:     lcdNumber(p[0]);
  3509  003434  C0B0  F063         	movff	_p,lcdNumber@value
  3510  003438  6A64               	clrf	(lcdNumber@value+1)^0,c
  3511  00343A  EC72  F019         	call	_lcdNumber	;wreg free
  3512  00343E                     
  3513                           ;main.c: 218:     lcdString("    P2:");
  3514  00343E  0E62               	movlw	low STR_17
  3515  003440  6E0F               	movwf	lcdString@msg^0,c
  3516  003442  0E06               	movlw	high STR_17
  3517  003444  6E10               	movwf	(lcdString@msg+1)^0,c
  3518  003446  ECF7  F01A         	call	_lcdString	;wreg free
  3519                           
  3520                           ;main.c: 219:     lcdNumber(p[1]);
  3521  00344A  C0B1  F063         	movff	_p+1,lcdNumber@value
  3522  00344E  6A64               	clrf	(lcdNumber@value+1)^0,c
  3523  003450  EC72  F019         	call	_lcdNumber	;wreg free
  3524                           
  3525                           ;main.c: 220:     lcdCommand(0xC0);
  3526  003454  0EC0               	movlw	192
  3527  003456  EC0E  F01D         	call	_lcdCommand
  3528  00345A                     
  3529                           ;main.c: 221:     lcdString("P3:");
  3530  00345A  0EA2               	movlw	low STR_18
  3531  00345C  6E0F               	movwf	lcdString@msg^0,c
  3532  00345E  0E06               	movlw	high STR_18
  3533  003460  6E10               	movwf	(lcdString@msg+1)^0,c
  3534  003462  ECF7  F01A         	call	_lcdString	;wreg free
  3535  003466                     
  3536                           ;main.c: 222:     lcdNumber(p[2]);
  3537  003466  C0B2  F063         	movff	_p+2,lcdNumber@value
  3538  00346A  6A64               	clrf	(lcdNumber@value+1)^0,c
  3539  00346C  EC72  F019         	call	_lcdNumber	;wreg free
  3540                           
  3541                           ;main.c: 223:     lcdString("    P4:");
  3542  003470  0E72               	movlw	low STR_19
  3543  003472  6E0F               	movwf	lcdString@msg^0,c
  3544  003474  0E06               	movlw	high STR_19
  3545  003476  6E10               	movwf	(lcdString@msg+1)^0,c
  3546  003478  ECF7  F01A         	call	_lcdString	;wreg free
  3547  00347C                     
  3548                           ;main.c: 224:     lcdNumber(p[3]);
  3549  00347C  C0B3  F063         	movff	_p+3,lcdNumber@value
  3550  003480  6A64               	clrf	(lcdNumber@value+1)^0,c
  3551  003482  EC72  F019         	call	_lcdNumber	;wreg free
  3552  003486                     
  3553                           ;main.c: 225:     infoGeral();
  3554  003486  EC50  F01C         	call	_infoGeral	;wreg free
  3555  00348A  0012               	return		;funcret
  3556  00348C                     __end_of_infoPress:
  3557                           	callstack 0
  3558                           
  3559 ;; *************** function _infoGeral *****************
  3560 ;; Defined at:
  3561 ;;		line 241 in file "main.c"
  3562 ;; Parameters:    Size  Location     Type
  3563 ;;		None
  3564 ;; Auto vars:     Size  Location     Type
  3565 ;;		None
  3566 ;; Return value:  Size  Location     Type
  3567 ;;                  1    wreg      void 
  3568 ;; Registers used:
  3569 ;;		wreg, status,2, status,0, cstack
  3570 ;; Tracked objects:
  3571 ;;		On entry : 0/0
  3572 ;;		On exit  : 0/0
  3573 ;;		Unchanged: 0/0
  3574 ;; Data sizes:     COMRAM   BANK0   BANK1   BANK2   BANK3   BANK4   BANK5
  3575 ;;      Params:         0       0       0       0       0       0       0
  3576 ;;      Locals:         0       0       0       0       0       0       0
  3577 ;;      Temps:          2       0       0       0       0       0       0
  3578 ;;      Totals:         2       0       0       0       0       0       0
  3579 ;;Total ram usage:        2 bytes
  3580 ;; Hardware stack levels used: 1
  3581 ;; Hardware stack levels required when called: 1
  3582 ;; This function calls:
  3583 ;;		___awdiv
  3584 ;; This function is called by:
  3585 ;;		_infoPress
  3586 ;;		_infoTemp
  3587 ;; This function uses a non-reentrant model
  3588 ;;
  3589                           
  3590                           	psect	text20
  3591  0038A0                     __ptext20:
  3592                           	callstack 0
  3593  0038A0                     _infoGeral:
  3594                           	callstack 28
  3595  0038A0                     
  3596                           ;main.c: 242:     tpG = (int)(tp[0]+tp[1]+tp[2]+tp[3])/4;
  3597  0038A0  0100               	movlb	0	; () banked
  3598  0038A2  51A9               	movf	(_tp+1)& (0+255),w,b
  3599  0038A4  C0A8  F009         	movff	_tp,??_infoGeral
  3600  0038A8  6A0A               	clrf	(??_infoGeral+1)^0,c
  3601  0038AA  2609               	addwf	??_infoGeral^0,f,c
  3602  0038AC  0E00               	movlw	0
  3603  0038AE  220A               	addwfc	(??_infoGeral+1)^0,f,c
  3604  0038B0  51AA               	movf	(_tp+2)& (0+255),w,b
  3605  0038B2  2609               	addwf	??_infoGeral^0,f,c
  3606  0038B4  0E00               	movlw	0
  3607  0038B6  220A               	addwfc	(??_infoGeral+1)^0,f,c
  3608  0038B8  51AB               	movf	(_tp+3)& (0+255),w,b
  3609  0038BA  2409               	addwf	??_infoGeral^0,w,c
  3610  0038BC  6E01               	movwf	___awdiv@dividend^0,c
  3611  0038BE  0E00               	movlw	0
  3612  0038C0  200A               	addwfc	(??_infoGeral+1)^0,w,c
  3613  0038C2  6E02               	movwf	(___awdiv@dividend+1)^0,c
  3614  0038C4  0E00               	movlw	0
  3615  0038C6  6E04               	movwf	(___awdiv@divisor+1)^0,c
  3616  0038C8  0E04               	movlw	4
  3617  0038CA  6E03               	movwf	___awdiv@divisor^0,c
  3618  0038CC  EC55  F017         	call	___awdiv	;wreg free
  3619  0038D0  5001               	movf	?___awdiv^0,w,c
  3620  0038D2  6E77               	movwf	_tpG^0,c
  3621  0038D4  0012               	return		;funcret
  3622  0038D6                     __end_of_infoGeral:
  3623                           	callstack 0
  3624                           
  3625 ;; *************** function _infoIndividual *****************
  3626 ;; Defined at:
  3627 ;;		line 189 in file "main.c"
  3628 ;; Parameters:    Size  Location     Type
  3629 ;;		None
  3630 ;; Auto vars:     Size  Location     Type
  3631 ;;		None
  3632 ;; Return value:  Size  Location     Type
  3633 ;;                  1    wreg      void 
  3634 ;; Registers used:
  3635 ;;		wreg, fsr2l, fsr2h, status,2, status,0, tblptrl, tblptrh, tblptru, prodl, prodh, cstack
  3636 ;; Tracked objects:
  3637 ;;		On entry : 0/0
  3638 ;;		On exit  : 0/0
  3639 ;;		Unchanged: 0/0
  3640 ;; Data sizes:     COMRAM   BANK0   BANK1   BANK2   BANK3   BANK4   BANK5
  3641 ;;      Params:         0       0       0       0       0       0       0
  3642 ;;      Locals:         0       0       0       0       0       0       0
  3643 ;;      Temps:          2       0       0       0       0       0       0
  3644 ;;      Totals:         2       0       0       0       0       0       0
  3645 ;;Total ram usage:        2 bytes
  3646 ;; Hardware stack levels used: 1
  3647 ;; Hardware stack levels required when called: 6
  3648 ;; This function calls:
  3649 ;;		___flge
  3650 ;;		___flmul
  3651 ;;		___xxtofl
  3652 ;;		_lcdChar
  3653 ;;		_lcdNumber
  3654 ;;		_lcdNumberUnit
  3655 ;;		_lcdPosition
  3656 ;;		_lcdString
  3657 ;;		_rgbColor
  3658 ;; This function is called by:
  3659 ;;		_main
  3660 ;; This function uses a non-reentrant model
  3661 ;;
  3662                           
  3663                           	psect	text21
  3664  001846                     __ptext21:
  3665                           	callstack 0
  3666  001846                     _infoIndividual:
  3667                           	callstack 24
  3668  001846                     
  3669                           ;main.c: 190:     lcdString(" P");
  3670  001846  0EAE               	movlw	low STR_11
  3671  001848  6E0F               	movwf	lcdString@msg^0,c
  3672  00184A  0E06               	movlw	high STR_11
  3673  00184C  6E10               	movwf	(lcdString@msg+1)^0,c
  3674  00184E  ECF7  F01A         	call	_lcdString	;wreg free
  3675  001852                     
  3676                           ;main.c: 191:     lcdNumberUnit(num+1);
  3677  001852  0E01               	movlw	1
  3678  001854  247C               	addwf	_num^0,w,c
  3679  001856  6E0F               	movwf	lcdNumberUnit@value^0,c
  3680  001858  6A10               	clrf	(lcdNumberUnit@value+1)^0,c
  3681  00185A  0E00               	movlw	0
  3682  00185C  2210               	addwfc	(lcdNumberUnit@value+1)^0,f,c
  3683  00185E  EC38  F019         	call	_lcdNumberUnit	;wreg free
  3684  001862                     
  3685                           ;main.c: 192:     lcdString(" Pres:");
  3686  001862  0E82               	movlw	low STR_12
  3687  001864  6E0F               	movwf	lcdString@msg^0,c
  3688  001866  0E06               	movlw	high STR_12
  3689  001868  6E10               	movwf	(lcdString@msg+1)^0,c
  3690  00186A  ECF7  F01A         	call	_lcdString	;wreg free
  3691  00186E                     
  3692                           ;main.c: 193:     lcdNumber(p[num]);
  3693  00186E  0EB0               	movlw	low _p
  3694  001870  247C               	addwf	_num^0,w,c
  3695  001872  6ED9               	movwf	fsr2l,c
  3696  001874  6ADA               	clrf	fsr2h,c
  3697  001876  0E00               	movlw	high _p
  3698  001878  22DA               	addwfc	fsr2h,f,c
  3699  00187A  50DF               	movf	indf2,w,c
  3700  00187C  6E67               	movwf	??_infoIndividual^0,c
  3701  00187E  5067               	movf	??_infoIndividual^0,w,c
  3702  001880  6E63               	movwf	lcdNumber@value^0,c
  3703  001882  6A64               	clrf	(lcdNumber@value+1)^0,c
  3704  001884  EC72  F019         	call	_lcdNumber	;wreg free
  3705  001888                     
  3706                           ;main.c: 194:     lcdString("PSI");
  3707  001888  0EAA               	movlw	low STR_13
  3708  00188A  6E0F               	movwf	lcdString@msg^0,c
  3709  00188C  0E06               	movlw	high STR_13
  3710  00188E  6E10               	movwf	(lcdString@msg+1)^0,c
  3711  001890  ECF7  F01A         	call	_lcdString	;wreg free
  3712  001894                     
  3713                           ;main.c: 195:     lcdPosition(1,1);
  3714  001894  0E00               	movlw	0
  3715  001896  6E10               	movwf	(lcdPosition@line+1)^0,c
  3716  001898  0E01               	movlw	1
  3717  00189A  6E0F               	movwf	lcdPosition@line^0,c
  3718  00189C  0E00               	movlw	0
  3719  00189E  6E12               	movwf	(lcdPosition@col+1)^0,c
  3720  0018A0  0E01               	movlw	1
  3721  0018A2  6E11               	movwf	lcdPosition@col^0,c
  3722  0018A4  EC17  F01C         	call	_lcdPosition	;wreg free
  3723  0018A8                     
  3724                           ;main.c: 196:     lcdString(" Temp.:");
  3725  0018A8  0E5A               	movlw	low STR_14
  3726  0018AA  6E0F               	movwf	lcdString@msg^0,c
  3727  0018AC  0E06               	movlw	high STR_14
  3728  0018AE  6E10               	movwf	(lcdString@msg+1)^0,c
  3729  0018B0  ECF7  F01A         	call	_lcdString	;wreg free
  3730                           
  3731                           ;main.c: 197:     lcdNumber(tp[num]);
  3732  0018B4  0EA8               	movlw	low _tp
  3733  0018B6  247C               	addwf	_num^0,w,c
  3734  0018B8  6ED9               	movwf	fsr2l,c
  3735  0018BA  6ADA               	clrf	fsr2h,c
  3736  0018BC  0E00               	movlw	high _tp
  3737  0018BE  22DA               	addwfc	fsr2h,f,c
  3738  0018C0  50DF               	movf	indf2,w,c
  3739  0018C2  6E67               	movwf	??_infoIndividual^0,c
  3740  0018C4  5067               	movf	??_infoIndividual^0,w,c
  3741  0018C6  6E63               	movwf	lcdNumber@value^0,c
  3742  0018C8  6A64               	clrf	(lcdNumber@value+1)^0,c
  3743  0018CA  EC72  F019         	call	_lcdNumber	;wreg free
  3744  0018CE                     
  3745                           ;main.c: 198:     lcdChar(0b1101111);
  3746  0018CE  0E6F               	movlw	111
  3747  0018D0  ECFF  F01C         	call	_lcdChar
  3748  0018D4                     
  3749                           ;main.c: 199:     lcdString("C");
  3750  0018D4  0EB1               	movlw	low STR_15
  3751  0018D6  6E0F               	movwf	lcdString@msg^0,c
  3752  0018D8  0E06               	movlw	high STR_15
  3753  0018DA  6E10               	movwf	(lcdString@msg+1)^0,c
  3754  0018DC  ECF7  F01A         	call	_lcdString	;wreg free
  3755  0018E0                     
  3756                           ;main.c: 202:     if(p[num] > 1.5*(pC[num]) || p[num] < 0.7*(pC[num])){
  3757  0018E0  0E00               	movlw	0
  3758  0018E2  6E3C               	movwf	___flmul@a^0,c
  3759  0018E4  0E00               	movlw	0
  3760  0018E6  6E3D               	movwf	(___flmul@a+1)^0,c
  3761  0018E8  0EC0               	movlw	192
  3762  0018EA  6E3E               	movwf	(___flmul@a+2)^0,c
  3763  0018EC  0E3F               	movlw	63
  3764  0018EE  6E3F               	movwf	(___flmul@a+3)^0,c
  3765  0018F0  0EAC               	movlw	low _pC
  3766  0018F2  247C               	addwf	_num^0,w,c
  3767  0018F4  6ED9               	movwf	fsr2l,c
  3768  0018F6  6ADA               	clrf	fsr2h,c
  3769  0018F8  0E00               	movlw	high _pC
  3770  0018FA  22DA               	addwfc	fsr2h,f,c
  3771  0018FC  50DF               	movf	indf2,w,c
  3772  0018FE  6E67               	movwf	??_infoIndividual^0,c
  3773  001900  5067               	movf	??_infoIndividual^0,w,c
  3774  001902  6E01               	movwf	___xxtofl@val^0,c
  3775  001904  6A02               	clrf	(___xxtofl@val+1)^0,c
  3776  001906  6A03               	clrf	(___xxtofl@val+2)^0,c
  3777  001908  6A04               	clrf	(___xxtofl@val+3)^0,c
  3778  00190A  0E01               	movlw	1
  3779  00190C  EC4A  F011         	call	___xxtofl
  3780  001910  C001  F038         	movff	?___xxtofl,___flmul@b
  3781  001914  C002  F039         	movff	?___xxtofl+1,___flmul@b+1
  3782  001918  C003  F03A         	movff	?___xxtofl+2,___flmul@b+2
  3783  00191C  C004  F03B         	movff	?___xxtofl+3,___flmul@b+3
  3784  001920  EC41  F008         	call	___flmul	;wreg free
  3785  001924  C038  F051         	movff	?___flmul,___flge@ff1
  3786  001928  C039  F052         	movff	?___flmul+1,___flge@ff1+1
  3787  00192C  C03A  F053         	movff	?___flmul+2,___flge@ff1+2
  3788  001930  C03B  F054         	movff	?___flmul+3,___flge@ff1+3
  3789  001934  0EB0               	movlw	low _p
  3790  001936  247C               	addwf	_num^0,w,c
  3791  001938  6ED9               	movwf	fsr2l,c
  3792  00193A  6ADA               	clrf	fsr2h,c
  3793  00193C  0E00               	movlw	high _p
  3794  00193E  22DA               	addwfc	fsr2h,f,c
  3795  001940  50DF               	movf	indf2,w,c
  3796  001942  6E68               	movwf	(??_infoIndividual+1)^0,c
  3797  001944  5068               	movf	(??_infoIndividual+1)^0,w,c
  3798  001946  6E01               	movwf	___xxtofl@val^0,c
  3799  001948  6A02               	clrf	(___xxtofl@val+1)^0,c
  3800  00194A  6A03               	clrf	(___xxtofl@val+2)^0,c
  3801  00194C  6A04               	clrf	(___xxtofl@val+3)^0,c
  3802  00194E  0E01               	movlw	1
  3803  001950  EC4A  F011         	call	___xxtofl
  3804  001954  C001  F055         	movff	?___xxtofl,___flge@ff2
  3805  001958  C002  F056         	movff	?___xxtofl+1,___flge@ff2+1
  3806  00195C  C003  F057         	movff	?___xxtofl+2,___flge@ff2+2
  3807  001960  C004  F058         	movff	?___xxtofl+3,___flge@ff2+3
  3808  001964  EC04  F016         	call	___flge	;wreg free
  3809  001968  A0D8               	btfss	status,0,c
  3810  00196A  EFB9  F00C         	goto	u4831
  3811  00196E  EFBB  F00C         	goto	u4830
  3812  001972                     u4831:
  3813  001972  EF06  F00D         	goto	l4179
  3814  001976                     u4830:
  3815  001976  0EB0               	movlw	low _p
  3816  001978  247C               	addwf	_num^0,w,c
  3817  00197A  6ED9               	movwf	fsr2l,c
  3818  00197C  6ADA               	clrf	fsr2h,c
  3819  00197E  0E00               	movlw	high _p
  3820  001980  22DA               	addwfc	fsr2h,f,c
  3821  001982  50DF               	movf	indf2,w,c
  3822  001984  6E67               	movwf	??_infoIndividual^0,c
  3823  001986  5067               	movf	??_infoIndividual^0,w,c
  3824  001988  6E01               	movwf	___xxtofl@val^0,c
  3825  00198A  6A02               	clrf	(___xxtofl@val+1)^0,c
  3826  00198C  6A03               	clrf	(___xxtofl@val+2)^0,c
  3827  00198E  6A04               	clrf	(___xxtofl@val+3)^0,c
  3828  001990  0E01               	movlw	1
  3829  001992  EC4A  F011         	call	___xxtofl
  3830  001996  C001  F051         	movff	?___xxtofl,___flge@ff1
  3831  00199A  C002  F052         	movff	?___xxtofl+1,___flge@ff1+1
  3832  00199E  C003  F053         	movff	?___xxtofl+2,___flge@ff1+2
  3833  0019A2  C004  F054         	movff	?___xxtofl+3,___flge@ff1+3
  3834  0019A6  0E33               	movlw	51
  3835  0019A8  6E3C               	movwf	___flmul@a^0,c
  3836  0019AA  0E33               	movlw	51
  3837  0019AC  6E3D               	movwf	(___flmul@a+1)^0,c
  3838  0019AE  0E33               	movlw	51
  3839  0019B0  6E3E               	movwf	(___flmul@a+2)^0,c
  3840  0019B2  0E3F               	movlw	63
  3841  0019B4  6E3F               	movwf	(___flmul@a+3)^0,c
  3842  0019B6  0EAC               	movlw	low _pC
  3843  0019B8  247C               	addwf	_num^0,w,c
  3844  0019BA  6ED9               	movwf	fsr2l,c
  3845  0019BC  6ADA               	clrf	fsr2h,c
  3846  0019BE  0E00               	movlw	high _pC
  3847  0019C0  22DA               	addwfc	fsr2h,f,c
  3848  0019C2  50DF               	movf	indf2,w,c
  3849  0019C4  6E68               	movwf	(??_infoIndividual+1)^0,c
  3850  0019C6  5068               	movf	(??_infoIndividual+1)^0,w,c
  3851  0019C8  6E01               	movwf	___xxtofl@val^0,c
  3852  0019CA  6A02               	clrf	(___xxtofl@val+1)^0,c
  3853  0019CC  6A03               	clrf	(___xxtofl@val+2)^0,c
  3854  0019CE  6A04               	clrf	(___xxtofl@val+3)^0,c
  3855  0019D0  0E01               	movlw	1
  3856  0019D2  EC4A  F011         	call	___xxtofl
  3857  0019D6  C001  F038         	movff	?___xxtofl,___flmul@b
  3858  0019DA  C002  F039         	movff	?___xxtofl+1,___flmul@b+1
  3859  0019DE  C003  F03A         	movff	?___xxtofl+2,___flmul@b+2
  3860  0019E2  C004  F03B         	movff	?___xxtofl+3,___flmul@b+3
  3861  0019E6  EC41  F008         	call	___flmul	;wreg free
  3862  0019EA  C038  F055         	movff	?___flmul,___flge@ff2
  3863  0019EE  C039  F056         	movff	?___flmul+1,___flge@ff2+1
  3864  0019F2  C03A  F057         	movff	?___flmul+2,___flge@ff2+2
  3865  0019F6  C03B  F058         	movff	?___flmul+3,___flge@ff2+3
  3866  0019FA  EC04  F016         	call	___flge	;wreg free
  3867  0019FE  B0D8               	btfsc	status,0,c
  3868  001A00  EF04  F00D         	goto	u4841
  3869  001A04  EF06  F00D         	goto	u4840
  3870  001A08                     u4841:
  3871  001A08  EF0E  F00D         	goto	l4181
  3872  001A0C                     u4840:
  3873  001A0C                     l4179:
  3874                           
  3875                           ;main.c: 203:         rgbColor(1);
  3876  001A0C  0E00               	movlw	0
  3877  001A0E  6E08               	movwf	(rgbColor@led+1)^0,c
  3878  001A10  0E01               	movlw	1
  3879  001A12  6E07               	movwf	rgbColor@led^0,c
  3880  001A14  EC11  F018         	call	_rgbColor	;wreg free
  3881                           
  3882                           ;main.c: 205:     }
  3883  001A18  EFB2  F00D         	goto	l187
  3884  001A1C                     l4181:
  3885  001A1C  0E66               	movlw	102
  3886  001A1E  6E3C               	movwf	___flmul@a^0,c
  3887  001A20  0E66               	movlw	102
  3888  001A22  6E3D               	movwf	(___flmul@a+1)^0,c
  3889  001A24  0EA6               	movlw	166
  3890  001A26  6E3E               	movwf	(___flmul@a+2)^0,c
  3891  001A28  0E3F               	movlw	63
  3892  001A2A  6E3F               	movwf	(___flmul@a+3)^0,c
  3893  001A2C  0EAC               	movlw	low _pC
  3894  001A2E  247C               	addwf	_num^0,w,c
  3895  001A30  6ED9               	movwf	fsr2l,c
  3896  001A32  6ADA               	clrf	fsr2h,c
  3897  001A34  0E00               	movlw	high _pC
  3898  001A36  22DA               	addwfc	fsr2h,f,c
  3899  001A38  50DF               	movf	indf2,w,c
  3900  001A3A  6E67               	movwf	??_infoIndividual^0,c
  3901  001A3C  5067               	movf	??_infoIndividual^0,w,c
  3902  001A3E  6E01               	movwf	___xxtofl@val^0,c
  3903  001A40  6A02               	clrf	(___xxtofl@val+1)^0,c
  3904  001A42  6A03               	clrf	(___xxtofl@val+2)^0,c
  3905  001A44  6A04               	clrf	(___xxtofl@val+3)^0,c
  3906  001A46  0E01               	movlw	1
  3907  001A48  EC4A  F011         	call	___xxtofl
  3908  001A4C  C001  F038         	movff	?___xxtofl,___flmul@b
  3909  001A50  C002  F039         	movff	?___xxtofl+1,___flmul@b+1
  3910  001A54  C003  F03A         	movff	?___xxtofl+2,___flmul@b+2
  3911  001A58  C004  F03B         	movff	?___xxtofl+3,___flmul@b+3
  3912  001A5C  EC41  F008         	call	___flmul	;wreg free
  3913  001A60  C038  F051         	movff	?___flmul,___flge@ff1
  3914  001A64  C039  F052         	movff	?___flmul+1,___flge@ff1+1
  3915  001A68  C03A  F053         	movff	?___flmul+2,___flge@ff1+2
  3916  001A6C  C03B  F054         	movff	?___flmul+3,___flge@ff1+3
  3917  001A70  0EB0               	movlw	low _p
  3918  001A72  247C               	addwf	_num^0,w,c
  3919  001A74  6ED9               	movwf	fsr2l,c
  3920  001A76  6ADA               	clrf	fsr2h,c
  3921  001A78  0E00               	movlw	high _p
  3922  001A7A  22DA               	addwfc	fsr2h,f,c
  3923  001A7C  50DF               	movf	indf2,w,c
  3924  001A7E  6E68               	movwf	(??_infoIndividual+1)^0,c
  3925  001A80  5068               	movf	(??_infoIndividual+1)^0,w,c
  3926  001A82  6E01               	movwf	___xxtofl@val^0,c
  3927  001A84  6A02               	clrf	(___xxtofl@val+1)^0,c
  3928  001A86  6A03               	clrf	(___xxtofl@val+2)^0,c
  3929  001A88  6A04               	clrf	(___xxtofl@val+3)^0,c
  3930  001A8A  0E01               	movlw	1
  3931  001A8C  EC4A  F011         	call	___xxtofl
  3932  001A90  C001  F055         	movff	?___xxtofl,___flge@ff2
  3933  001A94  C002  F056         	movff	?___xxtofl+1,___flge@ff2+1
  3934  001A98  C003  F057         	movff	?___xxtofl+2,___flge@ff2+2
  3935  001A9C  C004  F058         	movff	?___xxtofl+3,___flge@ff2+3
  3936  001AA0  EC04  F016         	call	___flge	;wreg free
  3937  001AA4  A0D8               	btfss	status,0,c
  3938  001AA6  EF57  F00D         	goto	u4851
  3939  001AAA  EF59  F00D         	goto	u4850
  3940  001AAE                     u4851:
  3941  001AAE  EFA4  F00D         	goto	l4185
  3942  001AB2                     u4850:
  3943  001AB2  0EB0               	movlw	low _p
  3944  001AB4  247C               	addwf	_num^0,w,c
  3945  001AB6  6ED9               	movwf	fsr2l,c
  3946  001AB8  6ADA               	clrf	fsr2h,c
  3947  001ABA  0E00               	movlw	high _p
  3948  001ABC  22DA               	addwfc	fsr2h,f,c
  3949  001ABE  50DF               	movf	indf2,w,c
  3950  001AC0  6E67               	movwf	??_infoIndividual^0,c
  3951  001AC2  5067               	movf	??_infoIndividual^0,w,c
  3952  001AC4  6E01               	movwf	___xxtofl@val^0,c
  3953  001AC6  6A02               	clrf	(___xxtofl@val+1)^0,c
  3954  001AC8  6A03               	clrf	(___xxtofl@val+2)^0,c
  3955  001ACA  6A04               	clrf	(___xxtofl@val+3)^0,c
  3956  001ACC  0E01               	movlw	1
  3957  001ACE  EC4A  F011         	call	___xxtofl
  3958  001AD2  C001  F051         	movff	?___xxtofl,___flge@ff1
  3959  001AD6  C002  F052         	movff	?___xxtofl+1,___flge@ff1+1
  3960  001ADA  C003  F053         	movff	?___xxtofl+2,___flge@ff1+2
  3961  001ADE  C004  F054         	movff	?___xxtofl+3,___flge@ff1+3
  3962  001AE2  0E66               	movlw	102
  3963  001AE4  6E3C               	movwf	___flmul@a^0,c
  3964  001AE6  0E66               	movlw	102
  3965  001AE8  6E3D               	movwf	(___flmul@a+1)^0,c
  3966  001AEA  0E66               	movlw	102
  3967  001AEC  6E3E               	movwf	(___flmul@a+2)^0,c
  3968  001AEE  0E3F               	movlw	63
  3969  001AF0  6E3F               	movwf	(___flmul@a+3)^0,c
  3970  001AF2  0EAC               	movlw	low _pC
  3971  001AF4  247C               	addwf	_num^0,w,c
  3972  001AF6  6ED9               	movwf	fsr2l,c
  3973  001AF8  6ADA               	clrf	fsr2h,c
  3974  001AFA  0E00               	movlw	high _pC
  3975  001AFC  22DA               	addwfc	fsr2h,f,c
  3976  001AFE  50DF               	movf	indf2,w,c
  3977  001B00  6E68               	movwf	(??_infoIndividual+1)^0,c
  3978  001B02  5068               	movf	(??_infoIndividual+1)^0,w,c
  3979  001B04  6E01               	movwf	___xxtofl@val^0,c
  3980  001B06  6A02               	clrf	(___xxtofl@val+1)^0,c
  3981  001B08  6A03               	clrf	(___xxtofl@val+2)^0,c
  3982  001B0A  6A04               	clrf	(___xxtofl@val+3)^0,c
  3983  001B0C  0E01               	movlw	1
  3984  001B0E  EC4A  F011         	call	___xxtofl
  3985  001B12  C001  F038         	movff	?___xxtofl,___flmul@b
  3986  001B16  C002  F039         	movff	?___xxtofl+1,___flmul@b+1
  3987  001B1A  C003  F03A         	movff	?___xxtofl+2,___flmul@b+2
  3988  001B1E  C004  F03B         	movff	?___xxtofl+3,___flmul@b+3
  3989  001B22  EC41  F008         	call	___flmul	;wreg free
  3990  001B26  C038  F055         	movff	?___flmul,___flge@ff2
  3991  001B2A  C039  F056         	movff	?___flmul+1,___flge@ff2+1
  3992  001B2E  C03A  F057         	movff	?___flmul+2,___flge@ff2+2
  3993  001B32  C03B  F058         	movff	?___flmul+3,___flge@ff2+3
  3994  001B36  EC04  F016         	call	___flge	;wreg free
  3995  001B3A  B0D8               	btfsc	status,0,c
  3996  001B3C  EFA2  F00D         	goto	u4861
  3997  001B40  EFA4  F00D         	goto	u4860
  3998  001B44                     u4861:
  3999  001B44  EFAC  F00D         	goto	l4187
  4000  001B48                     u4860:
  4001  001B48                     l4185:
  4002                           
  4003                           ;main.c: 207:         rgbColor(3);
  4004  001B48  0E00               	movlw	0
  4005  001B4A  6E08               	movwf	(rgbColor@led+1)^0,c
  4006  001B4C  0E03               	movlw	3
  4007  001B4E  6E07               	movwf	rgbColor@led^0,c
  4008  001B50  EC11  F018         	call	_rgbColor	;wreg free
  4009                           
  4010                           ;main.c: 209:     }
  4011  001B54  EFB2  F00D         	goto	l187
  4012  001B58                     l4187:
  4013                           
  4014                           ;main.c: 211:         rgbColor(2);
  4015  001B58  0E00               	movlw	0
  4016  001B5A  6E08               	movwf	(rgbColor@led+1)^0,c
  4017  001B5C  0E02               	movlw	2
  4018  001B5E  6E07               	movwf	rgbColor@led^0,c
  4019  001B60  EC11  F018         	call	_rgbColor	;wreg free
  4020  001B64                     l187:
  4021  001B64  0012               	return		;funcret
  4022  001B66                     __end_of_infoIndividual:
  4023                           	callstack 0
  4024                           
  4025 ;; *************** function _rgbColor *****************
  4026 ;; Defined at:
  4027 ;;		line 4 in file "rgb.c"
  4028 ;; Parameters:    Size  Location     Type
  4029 ;;  led             2    6[COMRAM] int 
  4030 ;; Auto vars:     Size  Location     Type
  4031 ;;		None
  4032 ;; Return value:  Size  Location     Type
  4033 ;;                  1    wreg      void 
  4034 ;; Registers used:
  4035 ;;		wreg, status,2, status,0, cstack
  4036 ;; Tracked objects:
  4037 ;;		On entry : 0/0
  4038 ;;		On exit  : 0/0
  4039 ;;		Unchanged: 0/0
  4040 ;; Data sizes:     COMRAM   BANK0   BANK1   BANK2   BANK3   BANK4   BANK5
  4041 ;;      Params:         2       0       0       0       0       0       0
  4042 ;;      Locals:         0       0       0       0       0       0       0
  4043 ;;      Temps:          0       0       0       0       0       0       0
  4044 ;;      Totals:         2       0       0       0       0       0       0
  4045 ;;Total ram usage:        2 bytes
  4046 ;; Hardware stack levels used: 1
  4047 ;; Hardware stack levels required when called: 1
  4048 ;; This function calls:
  4049 ;;		_digitalWrite
  4050 ;; This function is called by:
  4051 ;;		_infoIndividual
  4052 ;; This function uses a non-reentrant model
  4053 ;;
  4054                           
  4055                           	psect	text22
  4056  003022                     __ptext22:
  4057                           	callstack 0
  4058  003022                     _rgbColor:
  4059                           	callstack 28
  4060  003022                     
  4061                           ;rgb.c: 5:  if (led & 1) {
  4062  003022  A007               	btfss	rgbColor@led^0,0,c
  4063  003024  EF16  F018         	goto	u4671
  4064  003028  EF18  F018         	goto	u4670
  4065  00302C                     u4671:
  4066  00302C  EF24  F018         	goto	l3941
  4067  003030                     u4670:
  4068  003030                     
  4069                           ;rgb.c: 6:   digitalWrite(PIN_D0, 1);
  4070  003030  0E00               	movlw	0
  4071  003032  6E02               	movwf	(digitalWrite@pin+1)^0,c
  4072  003034  0E18               	movlw	24
  4073  003036  6E01               	movwf	digitalWrite@pin^0,c
  4074  003038  0E00               	movlw	0
  4075  00303A  6E04               	movwf	(digitalWrite@value+1)^0,c
  4076  00303C  0E01               	movlw	1
  4077  00303E  6E03               	movwf	digitalWrite@value^0,c
  4078  003040  ECFC  F00E         	call	_digitalWrite	;wreg free
  4079                           
  4080                           ;rgb.c: 7:  } else {
  4081  003044  EF2E  F018         	goto	l3943
  4082  003048                     l3941:
  4083                           
  4084                           ;rgb.c: 8:   digitalWrite(PIN_D0, 0);
  4085  003048  0E00               	movlw	0
  4086  00304A  6E02               	movwf	(digitalWrite@pin+1)^0,c
  4087  00304C  0E18               	movlw	24
  4088  00304E  6E01               	movwf	digitalWrite@pin^0,c
  4089  003050  0E00               	movlw	0
  4090  003052  6E04               	movwf	(digitalWrite@value+1)^0,c
  4091  003054  0E00               	movlw	0
  4092  003056  6E03               	movwf	digitalWrite@value^0,c
  4093  003058  ECFC  F00E         	call	_digitalWrite	;wreg free
  4094  00305C                     l3943:
  4095                           
  4096                           ;rgb.c: 10:  if (led & 2) {
  4097  00305C  A207               	btfss	rgbColor@led^0,1,c
  4098  00305E  EF33  F018         	goto	u4681
  4099  003062  EF35  F018         	goto	u4680
  4100  003066                     u4681:
  4101  003066  EF41  F018         	goto	l3947
  4102  00306A                     u4680:
  4103  00306A                     
  4104                           ;rgb.c: 11:   digitalWrite(PIN_D1, 1);
  4105  00306A  0E00               	movlw	0
  4106  00306C  6E02               	movwf	(digitalWrite@pin+1)^0,c
  4107  00306E  0E19               	movlw	25
  4108  003070  6E01               	movwf	digitalWrite@pin^0,c
  4109  003072  0E00               	movlw	0
  4110  003074  6E04               	movwf	(digitalWrite@value+1)^0,c
  4111  003076  0E01               	movlw	1
  4112  003078  6E03               	movwf	digitalWrite@value^0,c
  4113  00307A  ECFC  F00E         	call	_digitalWrite	;wreg free
  4114                           
  4115                           ;rgb.c: 12:  } else {
  4116  00307E  EF4B  F018         	goto	l3949
  4117  003082                     l3947:
  4118                           
  4119                           ;rgb.c: 13:   digitalWrite(PIN_D1, 0);
  4120  003082  0E00               	movlw	0
  4121  003084  6E02               	movwf	(digitalWrite@pin+1)^0,c
  4122  003086  0E19               	movlw	25
  4123  003088  6E01               	movwf	digitalWrite@pin^0,c
  4124  00308A  0E00               	movlw	0
  4125  00308C  6E04               	movwf	(digitalWrite@value+1)^0,c
  4126  00308E  0E00               	movlw	0
  4127  003090  6E03               	movwf	digitalWrite@value^0,c
  4128  003092  ECFC  F00E         	call	_digitalWrite	;wreg free
  4129  003096                     l3949:
  4130                           
  4131                           ;rgb.c: 15:  if (led & 4) {
  4132  003096  A407               	btfss	rgbColor@led^0,2,c
  4133  003098  EF50  F018         	goto	u4691
  4134  00309C  EF52  F018         	goto	u4690
  4135  0030A0                     u4691:
  4136  0030A0  EF5E  F018         	goto	l3953
  4137  0030A4                     u4690:
  4138  0030A4                     
  4139                           ;rgb.c: 16:   digitalWrite(PIN_D2, 1);
  4140  0030A4  0E00               	movlw	0
  4141  0030A6  6E02               	movwf	(digitalWrite@pin+1)^0,c
  4142  0030A8  0E1A               	movlw	26
  4143  0030AA  6E01               	movwf	digitalWrite@pin^0,c
  4144  0030AC  0E00               	movlw	0
  4145  0030AE  6E04               	movwf	(digitalWrite@value+1)^0,c
  4146  0030B0  0E01               	movlw	1
  4147  0030B2  6E03               	movwf	digitalWrite@value^0,c
  4148  0030B4  ECFC  F00E         	call	_digitalWrite	;wreg free
  4149                           
  4150                           ;rgb.c: 17:  } else {
  4151  0030B8  EF68  F018         	goto	l403
  4152  0030BC                     l3953:
  4153                           
  4154                           ;rgb.c: 18:   digitalWrite(PIN_D2, 0);
  4155  0030BC  0E00               	movlw	0
  4156  0030BE  6E02               	movwf	(digitalWrite@pin+1)^0,c
  4157  0030C0  0E1A               	movlw	26
  4158  0030C2  6E01               	movwf	digitalWrite@pin^0,c
  4159  0030C4  0E00               	movlw	0
  4160  0030C6  6E04               	movwf	(digitalWrite@value+1)^0,c
  4161  0030C8  0E00               	movlw	0
  4162  0030CA  6E03               	movwf	digitalWrite@value^0,c
  4163  0030CC  ECFC  F00E         	call	_digitalWrite	;wreg free
  4164  0030D0                     l403:
  4165  0030D0  0012               	return		;funcret
  4166  0030D2                     __end_of_rgbColor:
  4167                           	callstack 0
  4168                           
  4169 ;; *************** function ___flge *****************
  4170 ;; Defined at:
  4171 ;;		line 4 in file "C:\Program Files\Microchip\xc8\v2.32\pic\sources\c99\common\flge.c"
  4172 ;; Parameters:    Size  Location     Type
  4173 ;;  ff1             4   80[COMRAM] void 
  4174 ;;  ff2             4   84[COMRAM] void 
  4175 ;; Auto vars:     Size  Location     Type
  4176 ;;		None
  4177 ;; Return value:  Size  Location     Type
  4178 ;;		None               void
  4179 ;; Registers used:
  4180 ;;		wreg, status,2, status,0
  4181 ;; Tracked objects:
  4182 ;;		On entry : 0/0
  4183 ;;		On exit  : 0/0
  4184 ;;		Unchanged: 0/0
  4185 ;; Data sizes:     COMRAM   BANK0   BANK1   BANK2   BANK3   BANK4   BANK5
  4186 ;;      Params:         8       0       0       0       0       0       0
  4187 ;;      Locals:         0       0       0       0       0       0       0
  4188 ;;      Temps:          4       0       0       0       0       0       0
  4189 ;;      Totals:        12       0       0       0       0       0       0
  4190 ;;Total ram usage:       12 bytes
  4191 ;; Hardware stack levels used: 1
  4192 ;; This function calls:
  4193 ;;		Nothing
  4194 ;; This function is called by:
  4195 ;;		_infoIndividual
  4196 ;; This function uses a non-reentrant model
  4197 ;;
  4198                           
  4199                           	psect	text23
  4200  002C08                     __ptext23:
  4201                           	callstack 0
  4202  002C08                     ___flge:
  4203                           	callstack 29
  4204  002C08  0E00               	movlw	0
  4205  002C0A  1451               	andwf	___flge@ff1^0,w,c
  4206  002C0C  6E59               	movwf	??___flge^0,c
  4207  002C0E  0E00               	movlw	0
  4208  002C10  1452               	andwf	(___flge@ff1+1)^0,w,c
  4209  002C12  6E5A               	movwf	(??___flge+1)^0,c
  4210  002C14  0E80               	movlw	128
  4211  002C16  1453               	andwf	(___flge@ff1+2)^0,w,c
  4212  002C18  6E5B               	movwf	(??___flge+2)^0,c
  4213  002C1A  0E7F               	movlw	127
  4214  002C1C  1454               	andwf	(___flge@ff1+3)^0,w,c
  4215  002C1E  6E5C               	movwf	(??___flge+3)^0,c
  4216  002C20  5059               	movf	??___flge^0,w,c
  4217  002C22  105A               	iorwf	(??___flge+1)^0,w,c
  4218  002C24  105B               	iorwf	(??___flge+2)^0,w,c
  4219  002C26  105C               	iorwf	(??___flge+3)^0,w,c
  4220  002C28  A4D8               	btfss	status,2,c
  4221  002C2A  EF19  F016         	goto	u4741
  4222  002C2E  EF1B  F016         	goto	u4740
  4223  002C32                     u4741:
  4224  002C32  EF23  F016         	goto	l4029
  4225  002C36                     u4740:
  4226  002C36  0E00               	movlw	0
  4227  002C38  6E51               	movwf	___flge@ff1^0,c
  4228  002C3A  0E00               	movlw	0
  4229  002C3C  6E52               	movwf	(___flge@ff1+1)^0,c
  4230  002C3E  0E00               	movlw	0
  4231  002C40  6E53               	movwf	(___flge@ff1+2)^0,c
  4232  002C42  0E00               	movlw	0
  4233  002C44  6E54               	movwf	(___flge@ff1+3)^0,c
  4234  002C46                     l4029:
  4235  002C46  0E00               	movlw	0
  4236  002C48  1455               	andwf	___flge@ff2^0,w,c
  4237  002C4A  6E59               	movwf	??___flge^0,c
  4238  002C4C  0E00               	movlw	0
  4239  002C4E  1456               	andwf	(___flge@ff2+1)^0,w,c
  4240  002C50  6E5A               	movwf	(??___flge+1)^0,c
  4241  002C52  0E80               	movlw	128
  4242  002C54  1457               	andwf	(___flge@ff2+2)^0,w,c
  4243  002C56  6E5B               	movwf	(??___flge+2)^0,c
  4244  002C58  0E7F               	movlw	127
  4245  002C5A  1458               	andwf	(___flge@ff2+3)^0,w,c
  4246  002C5C  6E5C               	movwf	(??___flge+3)^0,c
  4247  002C5E  5059               	movf	??___flge^0,w,c
  4248  002C60  105A               	iorwf	(??___flge+1)^0,w,c
  4249  002C62  105B               	iorwf	(??___flge+2)^0,w,c
  4250  002C64  105C               	iorwf	(??___flge+3)^0,w,c
  4251  002C66  A4D8               	btfss	status,2,c
  4252  002C68  EF38  F016         	goto	u4751
  4253  002C6C  EF3A  F016         	goto	u4750
  4254  002C70                     u4751:
  4255  002C70  EF42  F016         	goto	l4033
  4256  002C74                     u4750:
  4257  002C74  0E00               	movlw	0
  4258  002C76  6E55               	movwf	___flge@ff2^0,c
  4259  002C78  0E00               	movlw	0
  4260  002C7A  6E56               	movwf	(___flge@ff2+1)^0,c
  4261  002C7C  0E00               	movlw	0
  4262  002C7E  6E57               	movwf	(___flge@ff2+2)^0,c
  4263  002C80  0E00               	movlw	0
  4264  002C82  6E58               	movwf	(___flge@ff2+3)^0,c
  4265  002C84                     l4033:
  4266  002C84  AE54               	btfss	(___flge@ff1+3)^0,7,c
  4267  002C86  EF47  F016         	goto	u4761
  4268  002C8A  EF49  F016         	goto	u4760
  4269  002C8E                     u4761:
  4270  002C8E  EF52  F016         	goto	l4037
  4271  002C92                     u4760:
  4272  002C92  6C51               	negf	___flge@ff1^0,c
  4273  002C94  1E52               	comf	(___flge@ff1+1)^0,f,c
  4274  002C96  B0D8               	btfsc	status,0,c
  4275  002C98  2A52               	incf	(___flge@ff1+1)^0,f,c
  4276  002C9A  1E53               	comf	(___flge@ff1+2)^0,f,c
  4277  002C9C  B0D8               	btfsc	status,0,c
  4278  002C9E  2A53               	incf	(___flge@ff1+2)^0,f,c
  4279  002CA0  0E80               	movlw	128
  4280  002CA2  5654               	subfwb	(___flge@ff1+3)^0,f,c
  4281  002CA4                     l4037:
  4282  002CA4  AE58               	btfss	(___flge@ff2+3)^0,7,c
  4283  002CA6  EF57  F016         	goto	u4771
  4284  002CAA  EF59  F016         	goto	u4770
  4285  002CAE                     u4771:
  4286  002CAE  EF62  F016         	goto	l785
  4287  002CB2                     u4770:
  4288  002CB2  6C55               	negf	___flge@ff2^0,c
  4289  002CB4  1E56               	comf	(___flge@ff2+1)^0,f,c
  4290  002CB6  B0D8               	btfsc	status,0,c
  4291  002CB8  2A56               	incf	(___flge@ff2+1)^0,f,c
  4292  002CBA  1E57               	comf	(___flge@ff2+2)^0,f,c
  4293  002CBC  B0D8               	btfsc	status,0,c
  4294  002CBE  2A57               	incf	(___flge@ff2+2)^0,f,c
  4295  002CC0  0E80               	movlw	128
  4296  002CC2  5658               	subfwb	(___flge@ff2+3)^0,f,c
  4297  002CC4                     l785:
  4298  002CC4  0E00               	movlw	0
  4299  002CC6  1A51               	xorwf	___flge@ff1^0,f,c
  4300  002CC8  0E00               	movlw	0
  4301  002CCA  1A52               	xorwf	(___flge@ff1+1)^0,f,c
  4302  002CCC  0E00               	movlw	0
  4303  002CCE  1A53               	xorwf	(___flge@ff1+2)^0,f,c
  4304  002CD0  0E80               	movlw	128
  4305  002CD2  1A54               	xorwf	(___flge@ff1+3)^0,f,c
  4306  002CD4  0E00               	movlw	0
  4307  002CD6  1A55               	xorwf	___flge@ff2^0,f,c
  4308  002CD8  0E00               	movlw	0
  4309  002CDA  1A56               	xorwf	(___flge@ff2+1)^0,f,c
  4310  002CDC  0E00               	movlw	0
  4311  002CDE  1A57               	xorwf	(___flge@ff2+2)^0,f,c
  4312  002CE0  0E80               	movlw	128
  4313  002CE2  1A58               	xorwf	(___flge@ff2+3)^0,f,c
  4314  002CE4  5055               	movf	___flge@ff2^0,w,c
  4315  002CE6  5C51               	subwf	___flge@ff1^0,w,c
  4316  002CE8  5056               	movf	(___flge@ff2+1)^0,w,c
  4317  002CEA  5852               	subwfb	(___flge@ff1+1)^0,w,c
  4318  002CEC  5057               	movf	(___flge@ff2+2)^0,w,c
  4319  002CEE  5853               	subwfb	(___flge@ff1+2)^0,w,c
  4320  002CF0  5058               	movf	(___flge@ff2+3)^0,w,c
  4321  002CF2  5854               	subwfb	(___flge@ff1+3)^0,w,c
  4322  002CF4  B0D8               	btfsc	status,0,c
  4323  002CF6  EF7F  F016         	goto	u4781
  4324  002CFA  EF81  F016         	goto	u4780
  4325  002CFE                     u4781:
  4326  002CFE  EF84  F016         	goto	l4043
  4327  002D02                     u4780:
  4328  002D02  90D8               	bcf	status,0,c
  4329  002D04  EF85  F016         	goto	l790
  4330  002D08                     l4043:
  4331  002D08  80D8               	bsf	status,0,c
  4332  002D0A                     l790:
  4333  002D0A  0012               	return		;funcret
  4334  002D0C                     __end_of___flge:
  4335                           	callstack 0
  4336                           
  4337 ;; *************** function _configuraPSI *****************
  4338 ;; Defined at:
  4339 ;;		line 88 in file "main.c"
  4340 ;; Parameters:    Size  Location     Type
  4341 ;;		None
  4342 ;; Auto vars:     Size  Location     Type
  4343 ;;		None
  4344 ;; Return value:  Size  Location     Type
  4345 ;;                  1    wreg      void 
  4346 ;; Registers used:
  4347 ;;		wreg, fsr1l, fsr1h, fsr2l, fsr2h, status,2, status,0, tblptrl, tblptrh, tblptru, prodl, prodh, cstack
  4348 ;; Tracked objects:
  4349 ;;		On entry : 0/0
  4350 ;;		On exit  : 0/0
  4351 ;;		Unchanged: 0/0
  4352 ;; Data sizes:     COMRAM   BANK0   BANK1   BANK2   BANK3   BANK4   BANK5
  4353 ;;      Params:         0       0       0       0       0       0       0
  4354 ;;      Locals:         0       0       0       0       0       0       0
  4355 ;;      Temps:          1       0       0       0       0       0       0
  4356 ;;      Totals:         1       0       0       0       0       0       0
  4357 ;;Total ram usage:        1 bytes
  4358 ;; Hardware stack levels used: 1
  4359 ;; Hardware stack levels required when called: 7
  4360 ;; This function calls:
  4361 ;;		_comandos
  4362 ;;		_kpDebounce
  4363 ;;		_lcdCommand
  4364 ;;		_lcdNumber
  4365 ;;		_lcdNumberUnit
  4366 ;;		_lcdPosition
  4367 ;;		_lcdString
  4368 ;; This function is called by:
  4369 ;;		_main
  4370 ;; This function uses a non-reentrant model
  4371 ;;
  4372                           
  4373                           	psect	text24
  4374  002DE2                     __ptext24:
  4375                           	callstack 0
  4376  002DE2                     _configuraPSI:
  4377                           	callstack 23
  4378  002DE2                     
  4379                           ;main.c: 89:     lcdCommand(0x01);
  4380  002DE2  0E01               	movlw	1
  4381  002DE4  EC0E  F01D         	call	_lcdCommand
  4382                           
  4383                           ;main.c: 91:     while(conf){
  4384  002DE8  EF4C  F017         	goto	l4119
  4385  002DEC                     l4091:
  4386                           
  4387                           ;main.c: 93:         comandos();
  4388  002DEC  EC5C  F003         	call	_comandos	;wreg free
  4389  002DF0                     
  4390                           ;main.c: 94:         kpDebounce();
  4391  002DF0  EC5C  F014         	call	_kpDebounce	;wreg free
  4392  002DF4                     
  4393                           ;main.c: 96:         if(prt == 1){
  4394  002DF4  047E               	decf	_prt^0,w,c
  4395  002DF6  A4D8               	btfss	status,2,c
  4396  002DF8  EF00  F017         	goto	u4791
  4397  002DFC  EF02  F017         	goto	u4790
  4398  002E00                     u4791:
  4399  002E00  EF4A  F017         	goto	l4117
  4400  002E04                     u4790:
  4401  002E04                     
  4402                           ;main.c: 97:             prt = 0;
  4403  002E04  0E00               	movlw	0
  4404  002E06  6E7E               	movwf	_prt^0,c
  4405  002E08                     
  4406                           ;main.c: 98:             lcdPosition(0,0);
  4407  002E08  0E00               	movlw	0
  4408  002E0A  6E10               	movwf	(lcdPosition@line+1)^0,c
  4409  002E0C  0E00               	movlw	0
  4410  002E0E  6E0F               	movwf	lcdPosition@line^0,c
  4411  002E10  0E00               	movlw	0
  4412  002E12  6E12               	movwf	(lcdPosition@col+1)^0,c
  4413  002E14  0E00               	movlw	0
  4414  002E16  6E11               	movwf	lcdPosition@col^0,c
  4415  002E18  EC17  F01C         	call	_lcdPosition	;wreg free
  4416  002E1C                     
  4417                           ;main.c: 99:             lcdCommand(0xC0);
  4418  002E1C  0EC0               	movlw	192
  4419  002E1E  EC0E  F01D         	call	_lcdCommand
  4420  002E22                     
  4421                           ;main.c: 100:             lcdString("Aperte S p/ sair");
  4422  002E22  0E2C               	movlw	low STR_3
  4423  002E24  6E0F               	movwf	lcdString@msg^0,c
  4424  002E26  0E06               	movlw	high STR_3
  4425  002E28  6E10               	movwf	(lcdString@msg+1)^0,c
  4426  002E2A  ECF7  F01A         	call	_lcdString	;wreg free
  4427  002E2E                     
  4428                           ;main.c: 101:             lcdCommand(0x80);
  4429  002E2E  0E80               	movlw	128
  4430  002E30  EC0E  F01D         	call	_lcdCommand
  4431  002E34                     
  4432                           ;main.c: 103:             lcdString("Pneu ");
  4433  002E34  0E89               	movlw	low STR_4
  4434  002E36  6E0F               	movwf	lcdString@msg^0,c
  4435  002E38  0E06               	movlw	high STR_4
  4436  002E3A  6E10               	movwf	(lcdString@msg+1)^0,c
  4437  002E3C  ECF7  F01A         	call	_lcdString	;wreg free
  4438  002E40                     
  4439                           ;main.c: 104:             lcdNumberUnit(num+1);
  4440  002E40  0E01               	movlw	1
  4441  002E42  247C               	addwf	_num^0,w,c
  4442  002E44  6E0F               	movwf	lcdNumberUnit@value^0,c
  4443  002E46  6A10               	clrf	(lcdNumberUnit@value+1)^0,c
  4444  002E48  0E00               	movlw	0
  4445  002E4A  2210               	addwfc	(lcdNumberUnit@value+1)^0,f,c
  4446  002E4C  EC38  F019         	call	_lcdNumberUnit	;wreg free
  4447  002E50                     
  4448                           ;main.c: 105:             lcdString(": ");
  4449  002E50  0E57               	movlw	low (STR_10+9)
  4450  002E52  6E0F               	movwf	lcdString@msg^0,c
  4451  002E54  0E06               	movlw	high (STR_10+9)
  4452  002E56  6E10               	movwf	(lcdString@msg+1)^0,c
  4453  002E58  ECF7  F01A         	call	_lcdString	;wreg free
  4454  002E5C                     
  4455                           ;main.c: 106:             pC[num] = pC[num]+buff;
  4456  002E5C  0EAC               	movlw	low _pC
  4457  002E5E  247C               	addwf	_num^0,w,c
  4458  002E60  6ED9               	movwf	fsr2l,c
  4459  002E62  6ADA               	clrf	fsr2h,c
  4460  002E64  0E00               	movlw	high _pC
  4461  002E66  22DA               	addwfc	fsr2h,f,c
  4462  002E68  0EAC               	movlw	low _pC
  4463  002E6A  247C               	addwf	_num^0,w,c
  4464  002E6C  6EE1               	movwf	fsr1l,c
  4465  002E6E  6AE2               	clrf	fsr1h,c
  4466  002E70  0E00               	movlw	high _pC
  4467  002E72  22E2               	addwfc	fsr1h,f,c
  4468  002E74  50E7               	movf	indf1,w,c
  4469  002E76  247B               	addwf	_buff^0,w,c
  4470  002E78  6EDF               	movwf	indf2,c
  4471  002E7A                     
  4472                           ;main.c: 107:             lcdNumber(pC[num]);
  4473  002E7A  0EAC               	movlw	low _pC
  4474  002E7C  247C               	addwf	_num^0,w,c
  4475  002E7E  6ED9               	movwf	fsr2l,c
  4476  002E80  6ADA               	clrf	fsr2h,c
  4477  002E82  0E00               	movlw	high _pC
  4478  002E84  22DA               	addwfc	fsr2h,f,c
  4479  002E86  50DF               	movf	indf2,w,c
  4480  002E88  6E67               	movwf	??_configuraPSI^0,c
  4481  002E8A  5067               	movf	??_configuraPSI^0,w,c
  4482  002E8C  6E63               	movwf	lcdNumber@value^0,c
  4483  002E8E  6A64               	clrf	(lcdNumber@value+1)^0,c
  4484  002E90  EC72  F019         	call	_lcdNumber	;wreg free
  4485  002E94                     l4117:
  4486                           
  4487                           ;main.c: 110:     kpDebounce();
  4488  002E94  EC5C  F014         	call	_kpDebounce	;wreg free
  4489  002E98                     l4119:
  4490                           
  4491                           ;main.c: 91:     while(conf){
  4492  002E98  507F               	movf	_conf^0,w,c
  4493  002E9A  A4D8               	btfss	status,2,c
  4494  002E9C  EF52  F017         	goto	u4801
  4495  002EA0  EF54  F017         	goto	u4800
  4496  002EA4                     u4801:
  4497  002EA4  EFF6  F016         	goto	l4091
  4498  002EA8                     u4800:
  4499  002EA8  0012               	return		;funcret
  4500  002EAA                     __end_of_configuraPSI:
  4501                           	callstack 0
  4502                           
  4503 ;; *************** function _lcdPosition *****************
  4504 ;; Defined at:
  4505 ;;		line 44 in file "lcd.c"
  4506 ;; Parameters:    Size  Location     Type
  4507 ;;  line            2   14[COMRAM] int 
  4508 ;;  col             2   16[COMRAM] int 
  4509 ;; Auto vars:     Size  Location     Type
  4510 ;;		None
  4511 ;; Return value:  Size  Location     Type
  4512 ;;                  1    wreg      void 
  4513 ;; Registers used:
  4514 ;;		wreg, status,2, status,0, cstack
  4515 ;; Tracked objects:
  4516 ;;		On entry : 0/0
  4517 ;;		On exit  : 0/0
  4518 ;;		Unchanged: 0/0
  4519 ;; Data sizes:     COMRAM   BANK0   BANK1   BANK2   BANK3   BANK4   BANK5
  4520 ;;      Params:         4       0       0       0       0       0       0
  4521 ;;      Locals:         0       0       0       0       0       0       0
  4522 ;;      Temps:          0       0       0       0       0       0       0
  4523 ;;      Totals:         4       0       0       0       0       0       0
  4524 ;;Total ram usage:        4 bytes
  4525 ;; Hardware stack levels used: 1
  4526 ;; Hardware stack levels required when called: 5
  4527 ;; This function calls:
  4528 ;;		_lcdCommand
  4529 ;; This function is called by:
  4530 ;;		_main
  4531 ;;		_configuraPSI
  4532 ;;		_instrucaoLCD
  4533 ;;		_infoIndividual
  4534 ;; This function uses a non-reentrant model
  4535 ;;
  4536                           
  4537                           	psect	text25
  4538  00382E                     __ptext25:
  4539                           	callstack 0
  4540  00382E                     _lcdPosition:
  4541                           	callstack 25
  4542  00382E                     
  4543                           ;lcd.c: 45:  if (line == 0) {
  4544  00382E  500F               	movf	lcdPosition@line^0,w,c
  4545  003830  1010               	iorwf	(lcdPosition@line+1)^0,w,c
  4546  003832  A4D8               	btfss	status,2,c
  4547  003834  EF1E  F01C         	goto	u4421
  4548  003838  EF20  F01C         	goto	u4420
  4549  00383C                     u4421:
  4550  00383C  EF25  F01C         	goto	l3757
  4551  003840                     u4420:
  4552  003840                     
  4553                           ;lcd.c: 46:   lcdCommand(0x80 + (col % 16));
  4554  003840  5011               	movf	lcdPosition@col^0,w,c
  4555  003842  0B0F               	andlw	15
  4556  003844  0F80               	addlw	128
  4557  003846  EC0E  F01D         	call	_lcdCommand
  4558  00384A                     l3757:
  4559                           
  4560                           ;lcd.c: 48:  if (line == 1) {
  4561  00384A  040F               	decf	lcdPosition@line^0,w,c
  4562  00384C  1010               	iorwf	(lcdPosition@line+1)^0,w,c
  4563  00384E  A4D8               	btfss	status,2,c
  4564  003850  EF2C  F01C         	goto	u4431
  4565  003854  EF2E  F01C         	goto	u4430
  4566  003858                     u4431:
  4567  003858  EF33  F01C         	goto	l366
  4568  00385C                     u4430:
  4569  00385C                     
  4570                           ;lcd.c: 49:   lcdCommand(0xC0 + (col % 16));
  4571  00385C  5011               	movf	lcdPosition@col^0,w,c
  4572  00385E  0B0F               	andlw	15
  4573  003860  0FC0               	addlw	192
  4574  003862  EC0E  F01D         	call	_lcdCommand
  4575  003866                     l366:
  4576  003866  0012               	return		;funcret
  4577  003868                     __end_of_lcdPosition:
  4578                           	callstack 0
  4579                           
  4580 ;; *************** function _lcdNumberUnit *****************
  4581 ;; Defined at:
  4582 ;;		line 71 in file "lcd.c"
  4583 ;; Parameters:    Size  Location     Type
  4584 ;;  value           2   14[COMRAM] int 
  4585 ;; Auto vars:     Size  Location     Type
  4586 ;;  i               2   16[COMRAM] int 
  4587 ;; Return value:  Size  Location     Type
  4588 ;;                  1    wreg      void 
  4589 ;; Registers used:
  4590 ;;		wreg, status,2, status,0, cstack
  4591 ;; Tracked objects:
  4592 ;;		On entry : 0/0
  4593 ;;		On exit  : 0/0
  4594 ;;		Unchanged: 0/0
  4595 ;; Data sizes:     COMRAM   BANK0   BANK1   BANK2   BANK3   BANK4   BANK5
  4596 ;;      Params:         2       0       0       0       0       0       0
  4597 ;;      Locals:         2       0       0       0       0       0       0
  4598 ;;      Temps:          0       0       0       0       0       0       0
  4599 ;;      Totals:         4       0       0       0       0       0       0
  4600 ;;Total ram usage:        4 bytes
  4601 ;; Hardware stack levels used: 1
  4602 ;; Hardware stack levels required when called: 5
  4603 ;; This function calls:
  4604 ;;		___awdiv
  4605 ;;		___awmod
  4606 ;;		_lcdChar
  4607 ;; This function is called by:
  4608 ;;		_configuraPSI
  4609 ;;		_infoIndividual
  4610 ;; This function uses a non-reentrant model
  4611 ;;
  4612                           
  4613                           	psect	text26
  4614  003270                     __ptext26:
  4615                           	callstack 0
  4616  003270                     _lcdNumberUnit:
  4617                           	callstack 24
  4618  003270                     
  4619                           ;lcd.c: 72:  int i = 1;
  4620  003270  0E00               	movlw	0
  4621  003272  6E12               	movwf	(lcdNumberUnit@i+1)^0,c
  4622  003274  0E01               	movlw	1
  4623  003276  6E11               	movwf	lcdNumberUnit@i^0,c
  4624                           
  4625                           ;lcd.c: 73:  while (i > 0) {
  4626  003278  EF64  F019         	goto	l3935
  4627  00327C                     l3933:
  4628                           
  4629                           ;lcd.c: 74:   lcdChar((value / i) % 10 + 48);
  4630  00327C  C011  F003         	movff	lcdNumberUnit@i,___awdiv@divisor
  4631  003280  C012  F004         	movff	lcdNumberUnit@i+1,___awdiv@divisor+1
  4632  003284  C00F  F001         	movff	lcdNumberUnit@value,___awdiv@dividend
  4633  003288  C010  F002         	movff	lcdNumberUnit@value+1,___awdiv@dividend+1
  4634  00328C  EC55  F017         	call	___awdiv	;wreg free
  4635  003290  C001  F009         	movff	?___awdiv,___awmod@dividend
  4636  003294  C002  F00A         	movff	?___awdiv+1,___awmod@dividend+1
  4637  003298  0E00               	movlw	0
  4638  00329A  6E0C               	movwf	(___awmod@divisor+1)^0,c
  4639  00329C  0E0A               	movlw	10
  4640  00329E  6E0B               	movwf	___awmod@divisor^0,c
  4641  0032A0  EC69  F018         	call	___awmod	;wreg free
  4642  0032A4  5009               	movf	?___awmod^0,w,c
  4643  0032A6  0F30               	addlw	48
  4644  0032A8  ECFF  F01C         	call	_lcdChar
  4645                           
  4646                           ;lcd.c: 75:   i /= 10;
  4647  0032AC  C011  F001         	movff	lcdNumberUnit@i,___awdiv@dividend
  4648  0032B0  C012  F002         	movff	lcdNumberUnit@i+1,___awdiv@dividend+1
  4649  0032B4  0E00               	movlw	0
  4650  0032B6  6E04               	movwf	(___awdiv@divisor+1)^0,c
  4651  0032B8  0E0A               	movlw	10
  4652  0032BA  6E03               	movwf	___awdiv@divisor^0,c
  4653  0032BC  EC55  F017         	call	___awdiv	;wreg free
  4654  0032C0  C001  F011         	movff	?___awdiv,lcdNumberUnit@i
  4655  0032C4  C002  F012         	movff	?___awdiv+1,lcdNumberUnit@i+1
  4656  0032C8                     l3935:
  4657                           
  4658                           ;lcd.c: 73:  while (i > 0) {
  4659  0032C8  BE12               	btfsc	(lcdNumberUnit@i+1)^0,7,c
  4660  0032CA  EF71  F019         	goto	u4660
  4661  0032CE  5012               	movf	(lcdNumberUnit@i+1)^0,w,c
  4662  0032D0  E106               	bnz	u4661
  4663  0032D2  0411               	decf	lcdNumberUnit@i^0,w,c
  4664  0032D4  B0D8               	btfsc	status,0,c
  4665  0032D6  EF6F  F019         	goto	u4661
  4666  0032DA  EF71  F019         	goto	u4660
  4667  0032DE                     u4661:
  4668  0032DE  EF3E  F019         	goto	l3933
  4669  0032E2                     u4660:
  4670  0032E2  0012               	return		;funcret
  4671  0032E4                     __end_of_lcdNumberUnit:
  4672                           	callstack 0
  4673                           
  4674 ;; *************** function _comandos *****************
  4675 ;; Defined at:
  4676 ;;		line 131 in file "main.c"
  4677 ;; Parameters:    Size  Location     Type
  4678 ;;		None
  4679 ;; Auto vars:     Size  Location     Type
  4680 ;;  j               2   26[BANK0 ] int 
  4681 ;;  j               2   22[BANK0 ] int 
  4682 ;;  j               2   18[BANK0 ] int 
  4683 ;;  j               2   14[BANK0 ] int 
  4684 ;;  j               2   10[BANK0 ] int 
  4685 ;;  i               2   24[BANK0 ] int 
  4686 ;;  i               2   20[BANK0 ] int 
  4687 ;;  i               2   16[BANK0 ] int 
  4688 ;;  i               2   12[BANK0 ] int 
  4689 ;;  i               2    8[BANK0 ] int 
  4690 ;; Return value:  Size  Location     Type
  4691 ;;                  1    wreg      void 
  4692 ;; Registers used:
  4693 ;;		wreg, status,2, status,0, tblptrl, tblptrh, tblptru, prodl, prodh, cstack
  4694 ;; Tracked objects:
  4695 ;;		On entry : 0/0
  4696 ;;		On exit  : 0/0
  4697 ;;		Unchanged: 0/0
  4698 ;; Data sizes:     COMRAM   BANK0   BANK1   BANK2   BANK3   BANK4   BANK5
  4699 ;;      Params:         0       0       0       0       0       0       0
  4700 ;;      Locals:         0      28       0       0       0       0       0
  4701 ;;      Temps:          0       0       0       0       0       0       0
  4702 ;;      Totals:         0      28       0       0       0       0       0
  4703 ;;Total ram usage:       28 bytes
  4704 ;; Hardware stack levels used: 1
  4705 ;; Hardware stack levels required when called: 6
  4706 ;; This function calls:
  4707 ;;		___fladd
  4708 ;;		___fldiv
  4709 ;;		___flmul
  4710 ;;		___flsub
  4711 ;;		___fltol
  4712 ;;		___xxtofl
  4713 ;;		_adcRead
  4714 ;;		_kpDebounce
  4715 ;;		_kpReadKey
  4716 ;;		_lcdCommand
  4717 ;;		_lcdNumber
  4718 ;;		_lcdString
  4719 ;; This function is called by:
  4720 ;;		_main
  4721 ;;		_configuraPSI
  4722 ;; This function uses a non-reentrant model
  4723 ;;
  4724                           
  4725                           	psect	text27
  4726  0006B8                     __ptext27:
  4727                           	callstack 0
  4728  0006B8                     _comandos:
  4729                           	callstack 23
  4730  0006B8                     
  4731                           ;main.c: 133: pot = adcRead(0);
  4732  0006B8  0E00               	movlw	0
  4733  0006BA  6E02               	movwf	(adcRead@channel+1)^0,c
  4734  0006BC  0E00               	movlw	0
  4735  0006BE  6E01               	movwf	adcRead@channel^0,c
  4736  0006C0  EC22  F01B         	call	_adcRead	;wreg free
  4737  0006C4  C001  F0A6         	movff	?_adcRead,_pot
  4738  0006C8  C002  F0A7         	movff	?_adcRead+1,_pot+1
  4739  0006CC                     
  4740                           ;main.c: 134: tol = 50-(((float)pot/1023)*100);
  4741  0006CC  0E00               	movlw	0
  4742  0006CE  6E3C               	movwf	___flmul@a^0,c
  4743  0006D0  0E00               	movlw	0
  4744  0006D2  6E3D               	movwf	(___flmul@a+1)^0,c
  4745  0006D4  0EC8               	movlw	200
  4746  0006D6  6E3E               	movwf	(___flmul@a+2)^0,c
  4747  0006D8  0E42               	movlw	66
  4748  0006DA  6E3F               	movwf	(___flmul@a+3)^0,c
  4749  0006DC  0E00               	movlw	0
  4750  0006DE  6E13               	movwf	___fldiv@a^0,c
  4751  0006E0  0EC0               	movlw	192
  4752  0006E2  6E14               	movwf	(___fldiv@a+1)^0,c
  4753  0006E4  0E7F               	movlw	127
  4754  0006E6  6E15               	movwf	(___fldiv@a+2)^0,c
  4755  0006E8  0E44               	movlw	68
  4756  0006EA  6E16               	movwf	(___fldiv@a+3)^0,c
  4757  0006EC  C0A6  F001         	movff	_pot,___xxtofl@val
  4758  0006F0  C0A7  F002         	movff	_pot+1,___xxtofl@val+1
  4759  0006F4  0E00               	movlw	0
  4760  0006F6  BE02               	btfsc	(___xxtofl@val+1)^0,7,c
  4761  0006F8  0EFF               	movlw	-1
  4762  0006FA  6E03               	movwf	(___xxtofl@val+2)^0,c
  4763  0006FC  6E04               	movwf	(___xxtofl@val+3)^0,c
  4764  0006FE  0E01               	movlw	1
  4765  000700  EC4A  F011         	call	___xxtofl
  4766  000704  C001  F00F         	movff	?___xxtofl,___fldiv@b
  4767  000708  C002  F010         	movff	?___xxtofl+1,___fldiv@b+1
  4768  00070C  C003  F011         	movff	?___xxtofl+2,___fldiv@b+2
  4769  000710  C004  F012         	movff	?___xxtofl+3,___fldiv@b+3
  4770  000714  EC56  F00A         	call	___fldiv	;wreg free
  4771  000718  C00F  F038         	movff	?___fldiv,___flmul@b
  4772  00071C  C010  F039         	movff	?___fldiv+1,___flmul@b+1
  4773  000720  C011  F03A         	movff	?___fldiv+2,___flmul@b+2
  4774  000724  C012  F03B         	movff	?___fldiv+3,___flmul@b+3
  4775  000728  EC41  F008         	call	___flmul	;wreg free
  4776  00072C  C038  F055         	movff	?___flmul,___flsub@a
  4777  000730  C039  F056         	movff	?___flmul+1,___flsub@a+1
  4778  000734  C03A  F057         	movff	?___flmul+2,___flsub@a+2
  4779  000738  C03B  F058         	movff	?___flmul+3,___flsub@a+3
  4780  00073C  0E00               	movlw	0
  4781  00073E  6E51               	movwf	___flsub@b^0,c
  4782  000740  0E00               	movlw	0
  4783  000742  6E52               	movwf	(___flsub@b+1)^0,c
  4784  000744  0E48               	movlw	72
  4785  000746  6E53               	movwf	(___flsub@b+2)^0,c
  4786  000748  0E42               	movlw	66
  4787  00074A  6E54               	movwf	(___flsub@b+3)^0,c
  4788  00074C  EC95  F01B         	call	___flsub	;wreg free
  4789  000750  C051  F059         	movff	?___flsub,___fltol@f1
  4790  000754  C052  F05A         	movff	?___flsub+1,___fltol@f1+1
  4791  000758  C053  F05B         	movff	?___flsub+2,___fltol@f1+2
  4792  00075C  C054  F05C         	movff	?___flsub+3,___fltol@f1+3
  4793  000760  EC81  F015         	call	___fltol	;wreg free
  4794  000764  C059  F0A2         	movff	?___fltol,_tol
  4795  000768  C05A  F0A3         	movff	?___fltol+1,_tol+1
  4796  00076C                     
  4797                           ;main.c: 136: if(pot1 != adcRead(0)){
  4798  00076C  0E00               	movlw	0
  4799  00076E  6E02               	movwf	(adcRead@channel+1)^0,c
  4800  000770  0E00               	movlw	0
  4801  000772  6E01               	movwf	adcRead@channel^0,c
  4802  000774  EC22  F01B         	call	_adcRead	;wreg free
  4803  000778  0100               	movlb	0	; () banked
  4804  00077A  51A4               	movf	_pot1& (0+255),w,b
  4805  00077C  1801               	xorwf	?_adcRead^0,w,c
  4806  00077E  E109               	bnz	u4440
  4807  000780  51A5               	movf	(_pot1+1)& (0+255),w,b
  4808  000782  1802               	xorwf	(?_adcRead+1)^0,w,c
  4809  000784  B4D8               	btfsc	status,2,c
  4810  000786  EFC7  F003         	goto	u4441
  4811  00078A  EFC9  F003         	goto	u4440
  4812  00078E                     u4441:
  4813  00078E  EF59  F004         	goto	l3793
  4814  000792                     u4440:
  4815  000792                     
  4816                           ; BSR set to: 0
  4817                           ;main.c: 137:     lcdCommand(0x01);
  4818  000792  0E01               	movlw	1
  4819  000794  EC0E  F01D         	call	_lcdCommand
  4820  000798                     
  4821                           ;main.c: 138:     lcdString(" Temp max: ");
  4822  000798  0E4E               	movlw	low STR_10
  4823  00079A  6E0F               	movwf	lcdString@msg^0,c
  4824  00079C  0E06               	movlw	high STR_10
  4825  00079E  6E10               	movwf	(lcdString@msg+1)^0,c
  4826  0007A0  ECF7  F01A         	call	_lcdString	;wreg free
  4827  0007A4                     
  4828                           ;main.c: 139:     lcdNumber((100*(1+((float)tol/100))));
  4829  0007A4  0E00               	movlw	0
  4830  0007A6  6E3C               	movwf	___flmul@a^0,c
  4831  0007A8  0E00               	movlw	0
  4832  0007AA  6E3D               	movwf	(___flmul@a+1)^0,c
  4833  0007AC  0EC8               	movlw	200
  4834  0007AE  6E3E               	movwf	(___flmul@a+2)^0,c
  4835  0007B0  0E42               	movlw	66
  4836  0007B2  6E3F               	movwf	(___flmul@a+3)^0,c
  4837  0007B4  0E00               	movlw	0
  4838  0007B6  6E2C               	movwf	___fladd@a^0,c
  4839  0007B8  0E00               	movlw	0
  4840  0007BA  6E2D               	movwf	(___fladd@a+1)^0,c
  4841  0007BC  0E80               	movlw	128
  4842  0007BE  6E2E               	movwf	(___fladd@a+2)^0,c
  4843  0007C0  0E3F               	movlw	63
  4844  0007C2  6E2F               	movwf	(___fladd@a+3)^0,c
  4845  0007C4  0E00               	movlw	0
  4846  0007C6  6E13               	movwf	___fldiv@a^0,c
  4847  0007C8  0E00               	movlw	0
  4848  0007CA  6E14               	movwf	(___fldiv@a+1)^0,c
  4849  0007CC  0EC8               	movlw	200
  4850  0007CE  6E15               	movwf	(___fldiv@a+2)^0,c
  4851  0007D0  0E42               	movlw	66
  4852  0007D2  6E16               	movwf	(___fldiv@a+3)^0,c
  4853  0007D4  C0A2  F001         	movff	_tol,___xxtofl@val
  4854  0007D8  C0A3  F002         	movff	_tol+1,___xxtofl@val+1
  4855  0007DC  0E00               	movlw	0
  4856  0007DE  BE02               	btfsc	(___xxtofl@val+1)^0,7,c
  4857  0007E0  0EFF               	movlw	-1
  4858  0007E2  6E03               	movwf	(___xxtofl@val+2)^0,c
  4859  0007E4  6E04               	movwf	(___xxtofl@val+3)^0,c
  4860  0007E6  0E01               	movlw	1
  4861  0007E8  EC4A  F011         	call	___xxtofl
  4862  0007EC  C001  F00F         	movff	?___xxtofl,___fldiv@b
  4863  0007F0  C002  F010         	movff	?___xxtofl+1,___fldiv@b+1
  4864  0007F4  C003  F011         	movff	?___xxtofl+2,___fldiv@b+2
  4865  0007F8  C004  F012         	movff	?___xxtofl+3,___fldiv@b+3
  4866  0007FC  EC56  F00A         	call	___fldiv	;wreg free
  4867  000800  C00F  F028         	movff	?___fldiv,___fladd@b
  4868  000804  C010  F029         	movff	?___fldiv+1,___fladd@b+1
  4869  000808  C011  F02A         	movff	?___fldiv+2,___fladd@b+2
  4870  00080C  C012  F02B         	movff	?___fldiv+3,___fladd@b+3
  4871  000810  ECE1  F005         	call	___fladd	;wreg free
  4872  000814  C028  F038         	movff	?___fladd,___flmul@b
  4873  000818  C029  F039         	movff	?___fladd+1,___flmul@b+1
  4874  00081C  C02A  F03A         	movff	?___fladd+2,___flmul@b+2
  4875  000820  C02B  F03B         	movff	?___fladd+3,___flmul@b+3
  4876  000824  EC41  F008         	call	___flmul	;wreg free
  4877  000828  C038  F059         	movff	?___flmul,___fltol@f1
  4878  00082C  C039  F05A         	movff	?___flmul+1,___fltol@f1+1
  4879  000830  C03A  F05B         	movff	?___flmul+2,___fltol@f1+2
  4880  000834  C03B  F05C         	movff	?___flmul+3,___fltol@f1+3
  4881  000838  EC81  F015         	call	___fltol	;wreg free
  4882  00083C  C059  F063         	movff	?___fltol,lcdNumber@value
  4883  000840  C05A  F064         	movff	?___fltol+1,lcdNumber@value+1
  4884  000844  EC72  F019         	call	_lcdNumber	;wreg free
  4885  000848                     
  4886                           ;main.c: 140:     for(int i=0; i<1000;i++){
  4887  000848  0E00               	movlw	0
  4888  00084A  0100               	movlb	0	; () banked
  4889  00084C  6F89               	movwf	(comandos@i+1)& (0+255),b
  4890  00084E  0E00               	movlw	0
  4891  000850  6F88               	movwf	comandos@i& (0+255),b
  4892  000852                     l3775:
  4893                           
  4894                           ; BSR set to: 0
  4895  000852  BF89               	btfsc	(comandos@i+1)& (0+255),7,b
  4896  000854  EF35  F004         	goto	u4451
  4897  000858  0EE8               	movlw	232
  4898  00085A  5D88               	subwf	comandos@i& (0+255),w,b
  4899  00085C  0E03               	movlw	3
  4900  00085E  5989               	subwfb	(comandos@i+1)& (0+255),w,b
  4901  000860  A0D8               	btfss	status,0,c
  4902  000862  EF35  F004         	goto	u4451
  4903  000866  EF37  F004         	goto	u4450
  4904  00086A                     u4451:
  4905  00086A  EF39  F004         	goto	l3779
  4906  00086E                     u4450:
  4907  00086E  EF55  F004         	goto	l128
  4908  000872                     l3779:
  4909                           
  4910                           ; BSR set to: 0
  4911                           ;main.c: 141:     for(int j=0;j<100;j++){}}
  4912  000872  0E00               	movlw	0
  4913  000874  6F8B               	movwf	(comandos@j+1)& (0+255),b
  4914  000876  0E00               	movlw	0
  4915  000878  6F8A               	movwf	comandos@j& (0+255),b
  4916  00087A                     l3781:
  4917                           
  4918                           ; BSR set to: 0
  4919  00087A  BF8B               	btfsc	(comandos@j+1)& (0+255),7,b
  4920  00087C  EF49  F004         	goto	u4461
  4921  000880  518B               	movf	(comandos@j+1)& (0+255),w,b
  4922  000882  E109               	bnz	u4460
  4923  000884  0E64               	movlw	100
  4924  000886  5D8A               	subwf	comandos@j& (0+255),w,b
  4925  000888  A0D8               	btfss	status,0,c
  4926  00088A  EF49  F004         	goto	u4461
  4927  00088E  EF4B  F004         	goto	u4460
  4928  000892                     u4461:
  4929  000892  EF4D  F004         	goto	l3785
  4930  000896                     u4460:
  4931  000896  EF51  F004         	goto	l3789
  4932  00089A                     l3785:
  4933                           
  4934                           ; BSR set to: 0
  4935  00089A  4B8A               	infsnz	comandos@j& (0+255),f,b
  4936  00089C  2B8B               	incf	(comandos@j+1)& (0+255),f,b
  4937  00089E  EF3D  F004         	goto	l3781
  4938  0008A2                     l3789:
  4939                           
  4940                           ; BSR set to: 0
  4941  0008A2  4B88               	infsnz	comandos@i& (0+255),f,b
  4942  0008A4  2B89               	incf	(comandos@i+1)& (0+255),f,b
  4943  0008A6  EF29  F004         	goto	l3775
  4944  0008AA                     l128:
  4945                           
  4946                           ; BSR set to: 0
  4947                           ;main.c: 142:     pot1 = pot;
  4948  0008AA  C0A6  F0A4         	movff	_pot,_pot1
  4949  0008AE  C0A7  F0A5         	movff	_pot+1,_pot1+1
  4950  0008B2                     l3793:
  4951                           
  4952                           ; BSR set to: 0
  4953                           ;main.c: 145: kpDebounce();
  4954  0008B2  EC5C  F014         	call	_kpDebounce	;wreg free
  4955  0008B6                     
  4956                           ;main.c: 146: if(kpReadKey() == 'U'){
  4957  0008B6  ECC1  F018         	call	_kpReadKey	;wreg free
  4958  0008BA  0A55               	xorlw	85
  4959  0008BC  A4D8               	btfss	status,2,c
  4960  0008BE  EF63  F004         	goto	u4471
  4961  0008C2  EF65  F004         	goto	u4470
  4962  0008C6                     u4471:
  4963  0008C6  EF9A  F004         	goto	l3817
  4964  0008CA                     u4470:
  4965  0008CA                     
  4966                           ;main.c: 147:     buff=1;
  4967  0008CA  0E01               	movlw	1
  4968  0008CC  6E7B               	movwf	_buff^0,c
  4969                           
  4970                           ;main.c: 148:     prt=1;
  4971  0008CE  0E01               	movlw	1
  4972  0008D0  6E7E               	movwf	_prt^0,c
  4973                           
  4974                           ;main.c: 149:     for(int i=0; i<1000;i++){
  4975  0008D2  0E00               	movlw	0
  4976  0008D4  0100               	movlb	0	; () banked
  4977  0008D6  6F8D               	movwf	(comandos@i_188+1)& (0+255),b
  4978  0008D8  0E00               	movlw	0
  4979  0008DA  6F8C               	movwf	comandos@i_188& (0+255),b
  4980  0008DC                     l3799:
  4981                           
  4982                           ; BSR set to: 0
  4983  0008DC  BF8D               	btfsc	(comandos@i_188+1)& (0+255),7,b
  4984  0008DE  EF7A  F004         	goto	u4481
  4985  0008E2  0EE8               	movlw	232
  4986  0008E4  5D8C               	subwf	comandos@i_188& (0+255),w,b
  4987  0008E6  0E03               	movlw	3
  4988  0008E8  598D               	subwfb	(comandos@i_188+1)& (0+255),w,b
  4989  0008EA  A0D8               	btfss	status,0,c
  4990  0008EC  EF7A  F004         	goto	u4481
  4991  0008F0  EF7C  F004         	goto	u4480
  4992  0008F4                     u4481:
  4993  0008F4  EF7E  F004         	goto	l3803
  4994  0008F8                     u4480:
  4995  0008F8  EFDE  F005         	goto	l3929
  4996  0008FC                     l3803:
  4997                           
  4998                           ; BSR set to: 0
  4999                           ;main.c: 150:     for(int j=0;j<100;j++){}}
  5000  0008FC  0E00               	movlw	0
  5001  0008FE  6F8F               	movwf	(comandos@j_189+1)& (0+255),b
  5002  000900  0E00               	movlw	0
  5003  000902  6F8E               	movwf	comandos@j_189& (0+255),b
  5004  000904                     l3805:
  5005                           
  5006                           ; BSR set to: 0
  5007  000904  BF8F               	btfsc	(comandos@j_189+1)& (0+255),7,b
  5008  000906  EF8E  F004         	goto	u4491
  5009  00090A  518F               	movf	(comandos@j_189+1)& (0+255),w,b
  5010  00090C  E109               	bnz	u4490
  5011  00090E  0E64               	movlw	100
  5012  000910  5D8E               	subwf	comandos@j_189& (0+255),w,b
  5013  000912  A0D8               	btfss	status,0,c
  5014  000914  EF8E  F004         	goto	u4491
  5015  000918  EF90  F004         	goto	u4490
  5016  00091C                     u4491:
  5017  00091C  EF92  F004         	goto	l3809
  5018  000920                     u4490:
  5019  000920  EF96  F004         	goto	l3813
  5020  000924                     l3809:
  5021                           
  5022                           ; BSR set to: 0
  5023  000924  4B8E               	infsnz	comandos@j_189& (0+255),f,b
  5024  000926  2B8F               	incf	(comandos@j_189+1)& (0+255),f,b
  5025  000928  EF82  F004         	goto	l3805
  5026  00092C                     l3813:
  5027                           
  5028                           ; BSR set to: 0
  5029  00092C  4B8C               	infsnz	comandos@i_188& (0+255),f,b
  5030  00092E  2B8D               	incf	(comandos@i_188+1)& (0+255),f,b
  5031  000930  EF6E  F004         	goto	l3799
  5032  000934                     l3817:
  5033  000934  ECC1  F018         	call	_kpReadKey	;wreg free
  5034  000938  0A44               	xorlw	68
  5035  00093A  A4D8               	btfss	status,2,c
  5036  00093C  EFA2  F004         	goto	u4501
  5037  000940  EFA4  F004         	goto	u4500
  5038  000944                     u4501:
  5039  000944  EFD8  F004         	goto	l3841
  5040  000948                     u4500:
  5041  000948                     
  5042                           ;main.c: 153:     buff=-1;
  5043  000948  687B               	setf	_buff^0,c
  5044  00094A                     
  5045                           ;main.c: 154:     prt=1;
  5046  00094A  0E01               	movlw	1
  5047  00094C  6E7E               	movwf	_prt^0,c
  5048                           
  5049                           ;main.c: 155:     for(int i=0; i<1000;i++){
  5050  00094E  0E00               	movlw	0
  5051  000950  0100               	movlb	0	; () banked
  5052  000952  6F91               	movwf	(comandos@i_190+1)& (0+255),b
  5053  000954  0E00               	movlw	0
  5054  000956  6F90               	movwf	comandos@i_190& (0+255),b
  5055  000958                     l3823:
  5056                           
  5057                           ; BSR set to: 0
  5058  000958  BF91               	btfsc	(comandos@i_190+1)& (0+255),7,b
  5059  00095A  EFB8  F004         	goto	u4511
  5060  00095E  0EE8               	movlw	232
  5061  000960  5D90               	subwf	comandos@i_190& (0+255),w,b
  5062  000962  0E03               	movlw	3
  5063  000964  5991               	subwfb	(comandos@i_190+1)& (0+255),w,b
  5064  000966  A0D8               	btfss	status,0,c
  5065  000968  EFB8  F004         	goto	u4511
  5066  00096C  EFBA  F004         	goto	u4510
  5067  000970                     u4511:
  5068  000970  EFBC  F004         	goto	l3827
  5069  000974                     u4510:
  5070  000974  EFDE  F005         	goto	l3929
  5071  000978                     l3827:
  5072                           
  5073                           ; BSR set to: 0
  5074                           ;main.c: 156:     for(int j=0;j<100;j++){}}
  5075  000978  0E00               	movlw	0
  5076  00097A  6F93               	movwf	(comandos@j_191+1)& (0+255),b
  5077  00097C  0E00               	movlw	0
  5078  00097E  6F92               	movwf	comandos@j_191& (0+255),b
  5079  000980                     l3829:
  5080                           
  5081                           ; BSR set to: 0
  5082  000980  BF93               	btfsc	(comandos@j_191+1)& (0+255),7,b
  5083  000982  EFCC  F004         	goto	u4521
  5084  000986  5193               	movf	(comandos@j_191+1)& (0+255),w,b
  5085  000988  E109               	bnz	u4520
  5086  00098A  0E64               	movlw	100
  5087  00098C  5D92               	subwf	comandos@j_191& (0+255),w,b
  5088  00098E  A0D8               	btfss	status,0,c
  5089  000990  EFCC  F004         	goto	u4521
  5090  000994  EFCE  F004         	goto	u4520
  5091  000998                     u4521:
  5092  000998  EFD0  F004         	goto	l3833
  5093  00099C                     u4520:
  5094  00099C  EFD4  F004         	goto	l3837
  5095  0009A0                     l3833:
  5096                           
  5097                           ; BSR set to: 0
  5098  0009A0  4B92               	infsnz	comandos@j_191& (0+255),f,b
  5099  0009A2  2B93               	incf	(comandos@j_191+1)& (0+255),f,b
  5100  0009A4  EFC0  F004         	goto	l3829
  5101  0009A8                     l3837:
  5102                           
  5103                           ; BSR set to: 0
  5104  0009A8  4B90               	infsnz	comandos@i_190& (0+255),f,b
  5105  0009AA  2B91               	incf	(comandos@i_190+1)& (0+255),f,b
  5106  0009AC  EFAC  F004         	goto	l3823
  5107  0009B0                     l3841:
  5108  0009B0  ECC1  F018         	call	_kpReadKey	;wreg free
  5109  0009B4  0A52               	xorlw	82
  5110  0009B6  A4D8               	btfss	status,2,c
  5111  0009B8  EFE0  F004         	goto	u4531
  5112  0009BC  EFE2  F004         	goto	u4530
  5113  0009C0                     u4531:
  5114  0009C0  EF55  F005         	goto	l3883
  5115  0009C4                     u4530:
  5116  0009C4                     
  5117                           ;main.c: 159:     buff = 0;
  5118  0009C4  0E00               	movlw	0
  5119  0009C6  6E7B               	movwf	_buff^0,c
  5120  0009C8                     
  5121                           ;main.c: 160:     if(conf == 1)
  5122  0009C8  047F               	decf	_conf^0,w,c
  5123  0009CA  A4D8               	btfss	status,2,c
  5124  0009CC  EFEA  F004         	goto	u4541
  5125  0009D0  EFEC  F004         	goto	u4540
  5126  0009D4                     u4541:
  5127  0009D4  EF06  F005         	goto	l3855
  5128  0009D8                     u4540:
  5129  0009D8                     
  5130                           ;main.c: 161:         num = (num>2)? 0:num+1;
  5131  0009D8  0E03               	movlw	3
  5132  0009DA  607C               	cpfslt	_num^0,c
  5133  0009DC  EFF2  F004         	goto	u4551
  5134  0009E0  EFF4  F004         	goto	u4550
  5135  0009E4                     u4551:
  5136  0009E4  EFFD  F004         	goto	l3851
  5137  0009E8                     u4550:
  5138  0009E8  0E01               	movlw	1
  5139  0009EA  247C               	addwf	_num^0,w,c
  5140  0009EC  0100               	movlb	0	; () banked
  5141  0009EE  6F80               	movwf	_comandos$192& (0+255),b
  5142  0009F0  6B81               	clrf	(_comandos$192+1)& (0+255),b
  5143  0009F2  0E00               	movlw	0
  5144  0009F4  2381               	addwfc	(_comandos$192+1)& (0+255),f,b
  5145  0009F6  EF02  F005         	goto	l3853
  5146  0009FA                     l3851:
  5147  0009FA  0E00               	movlw	0
  5148  0009FC  0100               	movlb	0	; () banked
  5149  0009FE  6F81               	movwf	(_comandos$192+1)& (0+255),b
  5150  000A00  0E00               	movlw	0
  5151  000A02  6F80               	movwf	_comandos$192& (0+255),b
  5152  000A04                     l3853:
  5153                           
  5154                           ; BSR set to: 0
  5155  000A04  C080  F07C         	movff	_comandos$192,_num
  5156  000A08  EF1E  F005         	goto	l149
  5157  000A0C                     l3855:
  5158                           
  5159                           ;main.c: 163:         num = (num>4)? 0:num+1;
  5160  000A0C  0E05               	movlw	5
  5161  000A0E  607C               	cpfslt	_num^0,c
  5162  000A10  EF0C  F005         	goto	u4561
  5163  000A14  EF0E  F005         	goto	u4560
  5164  000A18                     u4561:
  5165  000A18  EF17  F005         	goto	l3859
  5166  000A1C                     u4560:
  5167  000A1C  0E01               	movlw	1
  5168  000A1E  247C               	addwf	_num^0,w,c
  5169  000A20  0100               	movlb	0	; () banked
  5170  000A22  6F82               	movwf	_comandos$193& (0+255),b
  5171  000A24  6B83               	clrf	(_comandos$193+1)& (0+255),b
  5172  000A26  0E00               	movlw	0
  5173  000A28  2383               	addwfc	(_comandos$193+1)& (0+255),f,b
  5174  000A2A  EF1C  F005         	goto	l3861
  5175  000A2E                     l3859:
  5176  000A2E  0E00               	movlw	0
  5177  000A30  0100               	movlb	0	; () banked
  5178  000A32  6F83               	movwf	(_comandos$193+1)& (0+255),b
  5179  000A34  0E00               	movlw	0
  5180  000A36  6F82               	movwf	_comandos$193& (0+255),b
  5181  000A38                     l3861:
  5182                           
  5183                           ; BSR set to: 0
  5184  000A38  C082  F07C         	movff	_comandos$193,_num
  5185  000A3C                     l149:
  5186                           
  5187                           ; BSR set to: 0
  5188                           ;main.c: 165:     prt=1;
  5189  000A3C  0E01               	movlw	1
  5190  000A3E  6E7E               	movwf	_prt^0,c
  5191                           
  5192                           ;main.c: 166:     for(int i=0; i<1000;i++){
  5193  000A40  0E00               	movlw	0
  5194  000A42  6F95               	movwf	(comandos@i_194+1)& (0+255),b
  5195  000A44  0E00               	movlw	0
  5196  000A46  6F94               	movwf	comandos@i_194& (0+255),b
  5197  000A48                     l3863:
  5198                           
  5199                           ; BSR set to: 0
  5200  000A48  BF95               	btfsc	(comandos@i_194+1)& (0+255),7,b
  5201  000A4A  EF30  F005         	goto	u4571
  5202  000A4E  0EE8               	movlw	232
  5203  000A50  5D94               	subwf	comandos@i_194& (0+255),w,b
  5204  000A52  0E03               	movlw	3
  5205  000A54  5995               	subwfb	(comandos@i_194+1)& (0+255),w,b
  5206  000A56  A0D8               	btfss	status,0,c
  5207  000A58  EF30  F005         	goto	u4571
  5208  000A5C  EF32  F005         	goto	u4570
  5209  000A60                     u4571:
  5210  000A60  EF34  F005         	goto	l3867
  5211  000A64                     u4570:
  5212  000A64  EF50  F005         	goto	l3881
  5213  000A68                     l3867:
  5214                           
  5215                           ; BSR set to: 0
  5216                           ;main.c: 167:     for(int j=0;j<100;j++){}}
  5217  000A68  0E00               	movlw	0
  5218  000A6A  6F97               	movwf	(comandos@j_195+1)& (0+255),b
  5219  000A6C  0E00               	movlw	0
  5220  000A6E  6F96               	movwf	comandos@j_195& (0+255),b
  5221  000A70                     l3869:
  5222                           
  5223                           ; BSR set to: 0
  5224  000A70  BF97               	btfsc	(comandos@j_195+1)& (0+255),7,b
  5225  000A72  EF44  F005         	goto	u4581
  5226  000A76  5197               	movf	(comandos@j_195+1)& (0+255),w,b
  5227  000A78  E109               	bnz	u4580
  5228  000A7A  0E64               	movlw	100
  5229  000A7C  5D96               	subwf	comandos@j_195& (0+255),w,b
  5230  000A7E  A0D8               	btfss	status,0,c
  5231  000A80  EF44  F005         	goto	u4581
  5232  000A84  EF46  F005         	goto	u4580
  5233  000A88                     u4581:
  5234  000A88  EF48  F005         	goto	l3873
  5235  000A8C                     u4580:
  5236  000A8C  EF4C  F005         	goto	l3877
  5237  000A90                     l3873:
  5238                           
  5239                           ; BSR set to: 0
  5240  000A90  4B96               	infsnz	comandos@j_195& (0+255),f,b
  5241  000A92  2B97               	incf	(comandos@j_195+1)& (0+255),f,b
  5242  000A94  EF38  F005         	goto	l3869
  5243  000A98                     l3877:
  5244                           
  5245                           ; BSR set to: 0
  5246  000A98  4B94               	infsnz	comandos@i_194& (0+255),f,b
  5247  000A9A  2B95               	incf	(comandos@i_194+1)& (0+255),f,b
  5248  000A9C  EF24  F005         	goto	l3863
  5249  000AA0                     l3881:
  5250                           
  5251                           ; BSR set to: 0
  5252                           ;main.c: 168:     lcdCommand(0x01);
  5253  000AA0  0E01               	movlw	1
  5254  000AA2  EC0E  F01D         	call	_lcdCommand
  5255                           
  5256                           ;main.c: 169: }
  5257  000AA6  EFDE  F005         	goto	l3929
  5258  000AAA                     l3883:
  5259  000AAA  ECC1  F018         	call	_kpReadKey	;wreg free
  5260  000AAE  0A4C               	xorlw	76
  5261  000AB0  A4D8               	btfss	status,2,c
  5262  000AB2  EF5D  F005         	goto	u4591
  5263  000AB6  EF5F  F005         	goto	u4590
  5264  000ABA                     u4591:
  5265  000ABA  EFD2  F005         	goto	l3925
  5266  000ABE                     u4590:
  5267  000ABE                     
  5268                           ;main.c: 171:     buff = 0;
  5269  000ABE  0E00               	movlw	0
  5270  000AC0  6E7B               	movwf	_buff^0,c
  5271  000AC2                     
  5272                           ;main.c: 172:     if(conf == 1)
  5273  000AC2  047F               	decf	_conf^0,w,c
  5274  000AC4  A4D8               	btfss	status,2,c
  5275  000AC6  EF67  F005         	goto	u4601
  5276  000ACA  EF69  F005         	goto	u4600
  5277  000ACE                     u4601:
  5278  000ACE  EF83  F005         	goto	l3897
  5279  000AD2                     u4600:
  5280  000AD2                     
  5281                           ;main.c: 173:         num = (num<1)? 3:num-1;
  5282  000AD2  507C               	movf	_num^0,w,c
  5283  000AD4  B4D8               	btfsc	status,2,c
  5284  000AD6  EF6F  F005         	goto	u4611
  5285  000ADA  EF71  F005         	goto	u4610
  5286  000ADE                     u4611:
  5287  000ADE  EF7A  F005         	goto	l3893
  5288  000AE2                     u4610:
  5289  000AE2  0EFF               	movlw	255
  5290  000AE4  247C               	addwf	_num^0,w,c
  5291  000AE6  0100               	movlb	0	; () banked
  5292  000AE8  6F84               	movwf	_comandos$196& (0+255),b
  5293  000AEA  6B85               	clrf	(_comandos$196+1)& (0+255),b
  5294  000AEC  0EFF               	movlw	255
  5295  000AEE  2385               	addwfc	(_comandos$196+1)& (0+255),f,b
  5296  000AF0  EF7F  F005         	goto	l3895
  5297  000AF4                     l3893:
  5298  000AF4  0E00               	movlw	0
  5299  000AF6  0100               	movlb	0	; () banked
  5300  000AF8  6F85               	movwf	(_comandos$196+1)& (0+255),b
  5301  000AFA  0E03               	movlw	3
  5302  000AFC  6F84               	movwf	_comandos$196& (0+255),b
  5303  000AFE                     l3895:
  5304                           
  5305                           ; BSR set to: 0
  5306  000AFE  C084  F07C         	movff	_comandos$196,_num
  5307  000B02  EF9B  F005         	goto	l165
  5308  000B06                     l3897:
  5309                           
  5310                           ;main.c: 175:         num = (num<1)? 5:num-1;
  5311  000B06  507C               	movf	_num^0,w,c
  5312  000B08  B4D8               	btfsc	status,2,c
  5313  000B0A  EF89  F005         	goto	u4621
  5314  000B0E  EF8B  F005         	goto	u4620
  5315  000B12                     u4621:
  5316  000B12  EF94  F005         	goto	l3901
  5317  000B16                     u4620:
  5318  000B16  0EFF               	movlw	255
  5319  000B18  247C               	addwf	_num^0,w,c
  5320  000B1A  0100               	movlb	0	; () banked
  5321  000B1C  6F86               	movwf	_comandos$197& (0+255),b
  5322  000B1E  6B87               	clrf	(_comandos$197+1)& (0+255),b
  5323  000B20  0EFF               	movlw	255
  5324  000B22  2387               	addwfc	(_comandos$197+1)& (0+255),f,b
  5325  000B24  EF99  F005         	goto	l3903
  5326  000B28                     l3901:
  5327  000B28  0E00               	movlw	0
  5328  000B2A  0100               	movlb	0	; () banked
  5329  000B2C  6F87               	movwf	(_comandos$197+1)& (0+255),b
  5330  000B2E  0E05               	movlw	5
  5331  000B30  6F86               	movwf	_comandos$197& (0+255),b
  5332  000B32                     l3903:
  5333                           
  5334                           ; BSR set to: 0
  5335  000B32  C086  F07C         	movff	_comandos$197,_num
  5336  000B36                     l165:
  5337                           
  5338                           ; BSR set to: 0
  5339                           ;main.c: 177:     prt=1;
  5340  000B36  0E01               	movlw	1
  5341  000B38  6E7E               	movwf	_prt^0,c
  5342                           
  5343                           ;main.c: 178:     for(int i=0; i<1000;i++){
  5344  000B3A  0E00               	movlw	0
  5345  000B3C  6F99               	movwf	(comandos@i_198+1)& (0+255),b
  5346  000B3E  0E00               	movlw	0
  5347  000B40  6F98               	movwf	comandos@i_198& (0+255),b
  5348  000B42                     l3905:
  5349                           
  5350                           ; BSR set to: 0
  5351  000B42  BF99               	btfsc	(comandos@i_198+1)& (0+255),7,b
  5352  000B44  EFAD  F005         	goto	u4631
  5353  000B48  0EE8               	movlw	232
  5354  000B4A  5D98               	subwf	comandos@i_198& (0+255),w,b
  5355  000B4C  0E03               	movlw	3
  5356  000B4E  5999               	subwfb	(comandos@i_198+1)& (0+255),w,b
  5357  000B50  A0D8               	btfss	status,0,c
  5358  000B52  EFAD  F005         	goto	u4631
  5359  000B56  EFAF  F005         	goto	u4630
  5360  000B5A                     u4631:
  5361  000B5A  EFB1  F005         	goto	l3909
  5362  000B5E                     u4630:
  5363  000B5E  EFCD  F005         	goto	l3923
  5364  000B62                     l3909:
  5365                           
  5366                           ; BSR set to: 0
  5367                           ;main.c: 179:     for(int j=0;j<100;j++){}}
  5368  000B62  0E00               	movlw	0
  5369  000B64  6F9B               	movwf	(comandos@j_199+1)& (0+255),b
  5370  000B66  0E00               	movlw	0
  5371  000B68  6F9A               	movwf	comandos@j_199& (0+255),b
  5372  000B6A                     l3911:
  5373                           
  5374                           ; BSR set to: 0
  5375  000B6A  BF9B               	btfsc	(comandos@j_199+1)& (0+255),7,b
  5376  000B6C  EFC1  F005         	goto	u4641
  5377  000B70  519B               	movf	(comandos@j_199+1)& (0+255),w,b
  5378  000B72  E109               	bnz	u4640
  5379  000B74  0E64               	movlw	100
  5380  000B76  5D9A               	subwf	comandos@j_199& (0+255),w,b
  5381  000B78  A0D8               	btfss	status,0,c
  5382  000B7A  EFC1  F005         	goto	u4641
  5383  000B7E  EFC3  F005         	goto	u4640
  5384  000B82                     u4641:
  5385  000B82  EFC5  F005         	goto	l3915
  5386  000B86                     u4640:
  5387  000B86  EFC9  F005         	goto	l3919
  5388  000B8A                     l3915:
  5389                           
  5390                           ; BSR set to: 0
  5391  000B8A  4B9A               	infsnz	comandos@j_199& (0+255),f,b
  5392  000B8C  2B9B               	incf	(comandos@j_199+1)& (0+255),f,b
  5393  000B8E  EFB5  F005         	goto	l3911
  5394  000B92                     l3919:
  5395                           
  5396                           ; BSR set to: 0
  5397  000B92  4B98               	infsnz	comandos@i_198& (0+255),f,b
  5398  000B94  2B99               	incf	(comandos@i_198+1)& (0+255),f,b
  5399  000B96  EFA1  F005         	goto	l3905
  5400  000B9A                     l3923:
  5401                           
  5402                           ; BSR set to: 0
  5403                           ;main.c: 180:     lcdCommand(0x01);
  5404  000B9A  0E01               	movlw	1
  5405  000B9C  EC0E  F01D         	call	_lcdCommand
  5406                           
  5407                           ;main.c: 181: }
  5408  000BA0  EFDE  F005         	goto	l3929
  5409  000BA4                     l3925:
  5410  000BA4  ECC1  F018         	call	_kpReadKey	;wreg free
  5411  000BA8  0A53               	xorlw	83
  5412  000BAA  A4D8               	btfss	status,2,c
  5413  000BAC  EFDA  F005         	goto	u4651
  5414  000BB0  EFDC  F005         	goto	u4650
  5415  000BB4                     u4651:
  5416  000BB4  EFDE  F005         	goto	l3929
  5417  000BB8                     u4650:
  5418  000BB8                     
  5419                           ;main.c: 183:     conf = 0;
  5420  000BB8  0E00               	movlw	0
  5421  000BBA  6E7F               	movwf	_conf^0,c
  5422  000BBC                     l3929:
  5423                           
  5424                           ;main.c: 186: kpDebounce();
  5425  000BBC  EC5C  F014         	call	_kpDebounce	;wreg free
  5426  000BC0  0012               	return		;funcret
  5427  000BC2                     __end_of_comandos:
  5428                           	callstack 0
  5429                           
  5430 ;; *************** function _lcdString *****************
  5431 ;; Defined at:
  5432 ;;		line 57 in file "lcd.c"
  5433 ;; Parameters:    Size  Location     Type
  5434 ;;  msg             2   14[COMRAM] PTR unsigned char 
  5435 ;;		 -> STR_23(8), STR_22(4), STR_21(8), STR_20(4), 
  5436 ;;		 -> STR_19(8), STR_18(4), STR_17(8), STR_16(4), 
  5437 ;;		 -> STR_15(2), STR_14(8), STR_13(4), STR_12(7), 
  5438 ;;		 -> STR_11(3), STR_10(12), STR_9(2), STR_8(2), 
  5439 ;;		 -> STR_7(5), STR_6(6), STR_5(3), STR_4(6), 
  5440 ;;		 -> STR_3(17), STR_2(17), STR_1(17), 
  5441 ;; Auto vars:     Size  Location     Type
  5442 ;;  i               2   18[COMRAM] int 
  5443 ;; Return value:  Size  Location     Type
  5444 ;;                  1    wreg      void 
  5445 ;; Registers used:
  5446 ;;		wreg, status,2, status,0, tblptrl, tblptrh, tblptru, cstack
  5447 ;; Tracked objects:
  5448 ;;		On entry : 0/0
  5449 ;;		On exit  : 0/0
  5450 ;;		Unchanged: 0/0
  5451 ;; Data sizes:     COMRAM   BANK0   BANK1   BANK2   BANK3   BANK4   BANK5
  5452 ;;      Params:         2       0       0       0       0       0       0
  5453 ;;      Locals:         2       0       0       0       0       0       0
  5454 ;;      Temps:          2       0       0       0       0       0       0
  5455 ;;      Totals:         6       0       0       0       0       0       0
  5456 ;;Total ram usage:        6 bytes
  5457 ;; Hardware stack levels used: 1
  5458 ;; Hardware stack levels required when called: 5
  5459 ;; This function calls:
  5460 ;;		_lcdChar
  5461 ;; This function is called by:
  5462 ;;		_main
  5463 ;;		_configuraPSI
  5464 ;;		_instrucaoLCD
  5465 ;;		_comandos
  5466 ;;		_infoIndividual
  5467 ;;		_infoPress
  5468 ;;		_infoTemp
  5469 ;; This function uses a non-reentrant model
  5470 ;;
  5471                           
  5472                           	psect	text28
  5473  0035EE                     __ptext28:
  5474                           	callstack 0
  5475  0035EE                     _lcdString:
  5476                           	callstack 25
  5477  0035EE                     
  5478                           ;lcd.c: 58:  int i = 0;
  5479  0035EE  0E00               	movlw	0
  5480  0035F0  6E14               	movwf	(lcdString@i+1)^0,c
  5481  0035F2  0E00               	movlw	0
  5482  0035F4  6E13               	movwf	lcdString@i^0,c
  5483                           
  5484                           ;lcd.c: 59:  while (msg[i] != 0) {
  5485  0035F6  EF0D  F01B         	goto	l3205
  5486  0035FA                     l3201:
  5487                           
  5488                           ;lcd.c: 60:   lcdChar(msg[i]);
  5489  0035FA  5013               	movf	lcdString@i^0,w,c
  5490  0035FC  240F               	addwf	lcdString@msg^0,w,c
  5491  0035FE  6E11               	movwf	??_lcdString^0,c
  5492  003600  5014               	movf	(lcdString@i+1)^0,w,c
  5493  003602  2010               	addwfc	(lcdString@msg+1)^0,w,c
  5494  003604  6E12               	movwf	(??_lcdString+1)^0,c
  5495  003606  C011  FFF6         	movff	??_lcdString,tblptrl
  5496  00360A  C012  FFF7         	movff	??_lcdString+1,tblptrh
  5497  00360E                     	if	0	;tblptru may be non-zero
  5498  00360E                     	endif
  5499  00360E                     	if	0	;tblptru may be non-zero
  5500  00360E                     	endif
  5501  00360E  0008               	tblrd		*
  5502  003610  50F5               	movf	tablat,w,c
  5503  003612  ECFF  F01C         	call	_lcdChar
  5504  003616                     
  5505                           ;lcd.c: 61:   i++;
  5506  003616  4A13               	infsnz	lcdString@i^0,f,c
  5507  003618  2A14               	incf	(lcdString@i+1)^0,f,c
  5508  00361A                     l3205:
  5509                           
  5510                           ;lcd.c: 59:  while (msg[i] != 0) {
  5511  00361A  5013               	movf	lcdString@i^0,w,c
  5512  00361C  240F               	addwf	lcdString@msg^0,w,c
  5513  00361E  6E11               	movwf	??_lcdString^0,c
  5514  003620  5014               	movf	(lcdString@i+1)^0,w,c
  5515  003622  2010               	addwfc	(lcdString@msg+1)^0,w,c
  5516  003624  6E12               	movwf	(??_lcdString+1)^0,c
  5517  003626  C011  FFF6         	movff	??_lcdString,tblptrl
  5518  00362A  C012  FFF7         	movff	??_lcdString+1,tblptrh
  5519  00362E                     	if	0	;tblptru may be non-zero
  5520  00362E                     	endif
  5521  00362E                     	if	0	;tblptru may be non-zero
  5522  00362E                     	endif
  5523  00362E  0008               	tblrd		*
  5524  003630  50F5               	movf	tablat,w,c
  5525  003632  0900               	iorlw	0
  5526  003634  A4D8               	btfss	status,2,c
  5527  003636  EF1F  F01B         	goto	u3391
  5528  00363A  EF21  F01B         	goto	u3390
  5529  00363E                     u3391:
  5530  00363E  EFFD  F01A         	goto	l3201
  5531  003642                     u3390:
  5532  003642  0012               	return		;funcret
  5533  003644                     __end_of_lcdString:
  5534                           	callstack 0
  5535                           
  5536 ;; *************** function _lcdNumber *****************
  5537 ;; Defined at:
  5538 ;;		line 64 in file "lcd.c"
  5539 ;; Parameters:    Size  Location     Type
  5540 ;;  value           2   98[COMRAM] int 
  5541 ;; Auto vars:     Size  Location     Type
  5542 ;;  i               2  100[COMRAM] int 
  5543 ;; Return value:  Size  Location     Type
  5544 ;;                  1    wreg      void 
  5545 ;; Registers used:
  5546 ;;		wreg, status,2, status,0, cstack
  5547 ;; Tracked objects:
  5548 ;;		On entry : 0/0
  5549 ;;		On exit  : 0/0
  5550 ;;		Unchanged: 0/0
  5551 ;; Data sizes:     COMRAM   BANK0   BANK1   BANK2   BANK3   BANK4   BANK5
  5552 ;;      Params:         2       0       0       0       0       0       0
  5553 ;;      Locals:         2       0       0       0       0       0       0
  5554 ;;      Temps:          0       0       0       0       0       0       0
  5555 ;;      Totals:         4       0       0       0       0       0       0
  5556 ;;Total ram usage:        4 bytes
  5557 ;; Hardware stack levels used: 1
  5558 ;; Hardware stack levels required when called: 5
  5559 ;; This function calls:
  5560 ;;		___awdiv
  5561 ;;		___awmod
  5562 ;;		_lcdChar
  5563 ;; This function is called by:
  5564 ;;		_configuraPSI
  5565 ;;		_comandos
  5566 ;;		_infoIndividual
  5567 ;;		_infoPress
  5568 ;;		_infoTemp
  5569 ;; This function uses a non-reentrant model
  5570 ;;
  5571                           
  5572                           	psect	text29
  5573  0032E4                     __ptext29:
  5574                           	callstack 0
  5575  0032E4                     _lcdNumber:
  5576                           	callstack 24
  5577  0032E4                     
  5578                           ;lcd.c: 65:  int i = 100;
  5579  0032E4  0E00               	movlw	0
  5580  0032E6  6E66               	movwf	(lcdNumber@i+1)^0,c
  5581  0032E8  0E64               	movlw	100
  5582  0032EA  6E65               	movwf	lcdNumber@i^0,c
  5583                           
  5584                           ;lcd.c: 66:  while (i > 0) {
  5585  0032EC  EF9E  F019         	goto	l3261
  5586  0032F0                     l3259:
  5587                           
  5588                           ;lcd.c: 67:   lcdChar((value / i) % 10 + 48);
  5589  0032F0  C065  F003         	movff	lcdNumber@i,___awdiv@divisor
  5590  0032F4  C066  F004         	movff	lcdNumber@i+1,___awdiv@divisor+1
  5591  0032F8  C063  F001         	movff	lcdNumber@value,___awdiv@dividend
  5592  0032FC  C064  F002         	movff	lcdNumber@value+1,___awdiv@dividend+1
  5593  003300  EC55  F017         	call	___awdiv	;wreg free
  5594  003304  C001  F009         	movff	?___awdiv,___awmod@dividend
  5595  003308  C002  F00A         	movff	?___awdiv+1,___awmod@dividend+1
  5596  00330C  0E00               	movlw	0
  5597  00330E  6E0C               	movwf	(___awmod@divisor+1)^0,c
  5598  003310  0E0A               	movlw	10
  5599  003312  6E0B               	movwf	___awmod@divisor^0,c
  5600  003314  EC69  F018         	call	___awmod	;wreg free
  5601  003318  5009               	movf	?___awmod^0,w,c
  5602  00331A  0F30               	addlw	48
  5603  00331C  ECFF  F01C         	call	_lcdChar
  5604                           
  5605                           ;lcd.c: 68:   i /= 10;
  5606  003320  C065  F001         	movff	lcdNumber@i,___awdiv@dividend
  5607  003324  C066  F002         	movff	lcdNumber@i+1,___awdiv@dividend+1
  5608  003328  0E00               	movlw	0
  5609  00332A  6E04               	movwf	(___awdiv@divisor+1)^0,c
  5610  00332C  0E0A               	movlw	10
  5611  00332E  6E03               	movwf	___awdiv@divisor^0,c
  5612  003330  EC55  F017         	call	___awdiv	;wreg free
  5613  003334  C001  F065         	movff	?___awdiv,lcdNumber@i
  5614  003338  C002  F066         	movff	?___awdiv+1,lcdNumber@i+1
  5615  00333C                     l3261:
  5616                           
  5617                           ;lcd.c: 66:  while (i > 0) {
  5618  00333C  BE66               	btfsc	(lcdNumber@i+1)^0,7,c
  5619  00333E  EFAB  F019         	goto	u3510
  5620  003342  5066               	movf	(lcdNumber@i+1)^0,w,c
  5621  003344  E106               	bnz	u3511
  5622  003346  0465               	decf	lcdNumber@i^0,w,c
  5623  003348  B0D8               	btfsc	status,0,c
  5624  00334A  EFA9  F019         	goto	u3511
  5625  00334E  EFAB  F019         	goto	u3510
  5626  003352                     u3511:
  5627  003352  EF78  F019         	goto	l3259
  5628  003356                     u3510:
  5629  003356  0012               	return		;funcret
  5630  003358                     __end_of_lcdNumber:
  5631                           	callstack 0
  5632                           
  5633 ;; *************** function _lcdChar *****************
  5634 ;; Defined at:
  5635 ;;		line 52 in file "lcd.c"
  5636 ;; Parameters:    Size  Location     Type
  5637 ;;  value           1    wreg     unsigned char 
  5638 ;; Auto vars:     Size  Location     Type
  5639 ;;  value           1   13[COMRAM] unsigned char 
  5640 ;; Return value:  Size  Location     Type
  5641 ;;                  1    wreg      void 
  5642 ;; Registers used:
  5643 ;;		wreg, status,2, status,0, cstack
  5644 ;; Tracked objects:
  5645 ;;		On entry : 0/0
  5646 ;;		On exit  : 0/0
  5647 ;;		Unchanged: 0/0
  5648 ;; Data sizes:     COMRAM   BANK0   BANK1   BANK2   BANK3   BANK4   BANK5
  5649 ;;      Params:         0       0       0       0       0       0       0
  5650 ;;      Locals:         1       0       0       0       0       0       0
  5651 ;;      Temps:          0       0       0       0       0       0       0
  5652 ;;      Totals:         1       0       0       0       0       0       0
  5653 ;;Total ram usage:        1 bytes
  5654 ;; Hardware stack levels used: 1
  5655 ;; Hardware stack levels required when called: 4
  5656 ;; This function calls:
  5657 ;;		_delayMicro
  5658 ;;		_pushByte
  5659 ;; This function is called by:
  5660 ;;		_instrucaoLCD
  5661 ;;		_infoIndividual
  5662 ;;		_lcdString
  5663 ;;		_lcdNumber
  5664 ;;		_lcdNumberUnit
  5665 ;; This function uses a non-reentrant model
  5666 ;;
  5667                           
  5668                           	psect	text30
  5669  0039FE                     __ptext30:
  5670                           	callstack 0
  5671  0039FE                     _lcdChar:
  5672                           	callstack 25
  5673                           
  5674                           ;incstack = 0
  5675                           ;lcdChar@value stored from wreg
  5676  0039FE  6E0E               	movwf	lcdChar@value^0,c
  5677  003A00                     
  5678                           ;lcd.c: 53:  pushByte(value, 1);
  5679  003A00  0E00               	movlw	0
  5680  003A02  6E0B               	movwf	(pushByte@rs+1)^0,c
  5681  003A04  0E01               	movlw	1
  5682  003A06  6E0A               	movwf	pushByte@rs^0,c
  5683  003A08  500E               	movf	lcdChar@value^0,w,c
  5684  003A0A  EC73  F01A         	call	_pushByte
  5685  003A0E                     
  5686                           ;lcd.c: 54:  delayMicro(80);
  5687  003A0E  0E00               	movlw	0
  5688  003A10  6E02               	movwf	(delayMicro@a+1)^0,c
  5689  003A12  0E50               	movlw	80
  5690  003A14  6E01               	movwf	delayMicro@a^0,c
  5691  003A16  EC31  F01D         	call	_delayMicro	;wreg free
  5692  003A1A  0012               	return		;funcret
  5693  003A1C                     __end_of_lcdChar:
  5694                           	callstack 0
  5695                           
  5696 ;; *************** function ___awmod *****************
  5697 ;; Defined at:
  5698 ;;		line 7 in file "C:\Program Files\Microchip\xc8\v2.32\pic\sources\c99\common\awmod.c"
  5699 ;; Parameters:    Size  Location     Type
  5700 ;;  dividend        2    8[COMRAM] int 
  5701 ;;  divisor         2   10[COMRAM] int 
  5702 ;; Auto vars:     Size  Location     Type
  5703 ;;  sign            1   13[COMRAM] unsigned char 
  5704 ;;  counter         1   12[COMRAM] unsigned char 
  5705 ;; Return value:  Size  Location     Type
  5706 ;;                  2    8[COMRAM] int 
  5707 ;; Registers used:
  5708 ;;		wreg, status,2, status,0
  5709 ;; Tracked objects:
  5710 ;;		On entry : 0/0
  5711 ;;		On exit  : 0/0
  5712 ;;		Unchanged: 0/0
  5713 ;; Data sizes:     COMRAM   BANK0   BANK1   BANK2   BANK3   BANK4   BANK5
  5714 ;;      Params:         4       0       0       0       0       0       0
  5715 ;;      Locals:         2       0       0       0       0       0       0
  5716 ;;      Temps:          0       0       0       0       0       0       0
  5717 ;;      Totals:         6       0       0       0       0       0       0
  5718 ;;Total ram usage:        6 bytes
  5719 ;; Hardware stack levels used: 1
  5720 ;; This function calls:
  5721 ;;		Nothing
  5722 ;; This function is called by:
  5723 ;;		_lcdNumber
  5724 ;;		_lcdNumberUnit
  5725 ;; This function uses a non-reentrant model
  5726 ;;
  5727                           
  5728                           	psect	text31
  5729  0030D2                     __ptext31:
  5730                           	callstack 0
  5731  0030D2                     ___awmod:
  5732                           	callstack 28
  5733  0030D2  0E00               	movlw	0
  5734  0030D4  6E0E               	movwf	___awmod@sign^0,c
  5735  0030D6  BE0A               	btfsc	(___awmod@dividend+1)^0,7,c
  5736  0030D8  EF72  F018         	goto	u3330
  5737  0030DC  EF70  F018         	goto	u3331
  5738  0030E0                     u3331:
  5739  0030E0  EF78  F018         	goto	l3171
  5740  0030E4                     u3330:
  5741  0030E4  6C09               	negf	___awmod@dividend^0,c
  5742  0030E6  1E0A               	comf	(___awmod@dividend+1)^0,f,c
  5743  0030E8  B0D8               	btfsc	status,0,c
  5744  0030EA  2A0A               	incf	(___awmod@dividend+1)^0,f,c
  5745  0030EC  0E01               	movlw	1
  5746  0030EE  6E0E               	movwf	___awmod@sign^0,c
  5747  0030F0                     l3171:
  5748  0030F0  BE0C               	btfsc	(___awmod@divisor+1)^0,7,c
  5749  0030F2  EF7F  F018         	goto	u3340
  5750  0030F6  EF7D  F018         	goto	u3341
  5751  0030FA                     u3341:
  5752  0030FA  EF83  F018         	goto	l3175
  5753  0030FE                     u3340:
  5754  0030FE  6C0B               	negf	___awmod@divisor^0,c
  5755  003100  1E0C               	comf	(___awmod@divisor+1)^0,f,c
  5756  003102  B0D8               	btfsc	status,0,c
  5757  003104  2A0C               	incf	(___awmod@divisor+1)^0,f,c
  5758  003106                     l3175:
  5759  003106  500B               	movf	___awmod@divisor^0,w,c
  5760  003108  100C               	iorwf	(___awmod@divisor+1)^0,w,c
  5761  00310A  B4D8               	btfsc	status,2,c
  5762  00310C  EF8A  F018         	goto	u3351
  5763  003110  EF8C  F018         	goto	u3350
  5764  003114                     u3351:
  5765  003114  EFB0  F018         	goto	l3191
  5766  003118                     u3350:
  5767  003118  0E01               	movlw	1
  5768  00311A  6E0D               	movwf	___awmod@counter^0,c
  5769  00311C  EF94  F018         	goto	l3181
  5770  003120                     l3179:
  5771  003120  90D8               	bcf	status,0,c
  5772  003122  360B               	rlcf	___awmod@divisor^0,f,c
  5773  003124  360C               	rlcf	(___awmod@divisor+1)^0,f,c
  5774  003126  2A0D               	incf	___awmod@counter^0,f,c
  5775  003128                     l3181:
  5776  003128  AE0C               	btfss	(___awmod@divisor+1)^0,7,c
  5777  00312A  EF99  F018         	goto	u3361
  5778  00312E  EF9B  F018         	goto	u3360
  5779  003132                     u3361:
  5780  003132  EF90  F018         	goto	l3179
  5781  003136                     u3360:
  5782  003136                     l3183:
  5783  003136  500B               	movf	___awmod@divisor^0,w,c
  5784  003138  5C09               	subwf	___awmod@dividend^0,w,c
  5785  00313A  500C               	movf	(___awmod@divisor+1)^0,w,c
  5786  00313C  580A               	subwfb	(___awmod@dividend+1)^0,w,c
  5787  00313E  A0D8               	btfss	status,0,c
  5788  003140  EFA4  F018         	goto	u3371
  5789  003144  EFA6  F018         	goto	u3370
  5790  003148                     u3371:
  5791  003148  EFAA  F018         	goto	l3187
  5792  00314C                     u3370:
  5793  00314C  500B               	movf	___awmod@divisor^0,w,c
  5794  00314E  5E09               	subwf	___awmod@dividend^0,f,c
  5795  003150  500C               	movf	(___awmod@divisor+1)^0,w,c
  5796  003152  5A0A               	subwfb	(___awmod@dividend+1)^0,f,c
  5797  003154                     l3187:
  5798  003154  90D8               	bcf	status,0,c
  5799  003156  320C               	rrcf	(___awmod@divisor+1)^0,f,c
  5800  003158  320B               	rrcf	___awmod@divisor^0,f,c
  5801  00315A  2E0D               	decfsz	___awmod@counter^0,f,c
  5802  00315C  EF9B  F018         	goto	l3183
  5803  003160                     l3191:
  5804  003160  500E               	movf	___awmod@sign^0,w,c
  5805  003162  B4D8               	btfsc	status,2,c
  5806  003164  EFB6  F018         	goto	u3381
  5807  003168  EFB8  F018         	goto	u3380
  5808  00316C                     u3381:
  5809  00316C  EFBC  F018         	goto	l3195
  5810  003170                     u3380:
  5811  003170  6C09               	negf	___awmod@dividend^0,c
  5812  003172  1E0A               	comf	(___awmod@dividend+1)^0,f,c
  5813  003174  B0D8               	btfsc	status,0,c
  5814  003176  2A0A               	incf	(___awmod@dividend+1)^0,f,c
  5815  003178                     l3195:
  5816  003178  C009  F009         	movff	___awmod@dividend,?___awmod
  5817  00317C  C00A  F00A         	movff	___awmod@dividend+1,?___awmod+1
  5818  003180  0012               	return		;funcret
  5819  003182                     __end_of___awmod:
  5820                           	callstack 0
  5821                           
  5822 ;; *************** function ___awdiv *****************
  5823 ;; Defined at:
  5824 ;;		line 7 in file "C:\Program Files\Microchip\xc8\v2.32\pic\sources\c99\common\awdiv.c"
  5825 ;; Parameters:    Size  Location     Type
  5826 ;;  dividend        2    0[COMRAM] int 
  5827 ;;  divisor         2    2[COMRAM] int 
  5828 ;; Auto vars:     Size  Location     Type
  5829 ;;  quotient        2    6[COMRAM] int 
  5830 ;;  sign            1    5[COMRAM] unsigned char 
  5831 ;;  counter         1    4[COMRAM] unsigned char 
  5832 ;; Return value:  Size  Location     Type
  5833 ;;                  2    0[COMRAM] int 
  5834 ;; Registers used:
  5835 ;;		wreg, status,2, status,0
  5836 ;; Tracked objects:
  5837 ;;		On entry : 0/0
  5838 ;;		On exit  : 0/0
  5839 ;;		Unchanged: 0/0
  5840 ;; Data sizes:     COMRAM   BANK0   BANK1   BANK2   BANK3   BANK4   BANK5
  5841 ;;      Params:         4       0       0       0       0       0       0
  5842 ;;      Locals:         4       0       0       0       0       0       0
  5843 ;;      Temps:          0       0       0       0       0       0       0
  5844 ;;      Totals:         8       0       0       0       0       0       0
  5845 ;;Total ram usage:        8 bytes
  5846 ;; Hardware stack levels used: 1
  5847 ;; This function calls:
  5848 ;;		Nothing
  5849 ;; This function is called by:
  5850 ;;		_infoGeral
  5851 ;;		_lcdNumber
  5852 ;;		_lcdNumberUnit
  5853 ;; This function uses a non-reentrant model
  5854 ;;
  5855                           
  5856                           	psect	text32
  5857  002EAA                     __ptext32:
  5858                           	callstack 0
  5859  002EAA                     ___awdiv:
  5860                           	callstack 28
  5861  002EAA  0E00               	movlw	0
  5862  002EAC  6E06               	movwf	___awdiv@sign^0,c
  5863  002EAE  BE04               	btfsc	(___awdiv@divisor+1)^0,7,c
  5864  002EB0  EF5E  F017         	goto	u3270
  5865  002EB4  EF5C  F017         	goto	u3271
  5866  002EB8                     u3271:
  5867  002EB8  EF64  F017         	goto	l3127
  5868  002EBC                     u3270:
  5869  002EBC  6C03               	negf	___awdiv@divisor^0,c
  5870  002EBE  1E04               	comf	(___awdiv@divisor+1)^0,f,c
  5871  002EC0  B0D8               	btfsc	status,0,c
  5872  002EC2  2A04               	incf	(___awdiv@divisor+1)^0,f,c
  5873  002EC4  0E01               	movlw	1
  5874  002EC6  6E06               	movwf	___awdiv@sign^0,c
  5875  002EC8                     l3127:
  5876  002EC8  BE02               	btfsc	(___awdiv@dividend+1)^0,7,c
  5877  002ECA  EF6B  F017         	goto	u3280
  5878  002ECE  EF69  F017         	goto	u3281
  5879  002ED2                     u3281:
  5880  002ED2  EF71  F017         	goto	l3133
  5881  002ED6                     u3280:
  5882  002ED6  6C01               	negf	___awdiv@dividend^0,c
  5883  002ED8  1E02               	comf	(___awdiv@dividend+1)^0,f,c
  5884  002EDA  B0D8               	btfsc	status,0,c
  5885  002EDC  2A02               	incf	(___awdiv@dividend+1)^0,f,c
  5886  002EDE  0E01               	movlw	1
  5887  002EE0  1A06               	xorwf	___awdiv@sign^0,f,c
  5888  002EE2                     l3133:
  5889  002EE2  0E00               	movlw	0
  5890  002EE4  6E08               	movwf	(___awdiv@quotient+1)^0,c
  5891  002EE6  0E00               	movlw	0
  5892  002EE8  6E07               	movwf	___awdiv@quotient^0,c
  5893  002EEA  5003               	movf	___awdiv@divisor^0,w,c
  5894  002EEC  1004               	iorwf	(___awdiv@divisor+1)^0,w,c
  5895  002EEE  B4D8               	btfsc	status,2,c
  5896  002EF0  EF7C  F017         	goto	u3291
  5897  002EF4  EF7E  F017         	goto	u3290
  5898  002EF8                     u3291:
  5899  002EF8  EFA6  F017         	goto	l3155
  5900  002EFC                     u3290:
  5901  002EFC  0E01               	movlw	1
  5902  002EFE  6E05               	movwf	___awdiv@counter^0,c
  5903  002F00  EF86  F017         	goto	l3141
  5904  002F04                     l3139:
  5905  002F04  90D8               	bcf	status,0,c
  5906  002F06  3603               	rlcf	___awdiv@divisor^0,f,c
  5907  002F08  3604               	rlcf	(___awdiv@divisor+1)^0,f,c
  5908  002F0A  2A05               	incf	___awdiv@counter^0,f,c
  5909  002F0C                     l3141:
  5910  002F0C  AE04               	btfss	(___awdiv@divisor+1)^0,7,c
  5911  002F0E  EF8B  F017         	goto	u3301
  5912  002F12  EF8D  F017         	goto	u3300
  5913  002F16                     u3301:
  5914  002F16  EF82  F017         	goto	l3139
  5915  002F1A                     u3300:
  5916  002F1A                     l3143:
  5917  002F1A  90D8               	bcf	status,0,c
  5918  002F1C  3607               	rlcf	___awdiv@quotient^0,f,c
  5919  002F1E  3608               	rlcf	(___awdiv@quotient+1)^0,f,c
  5920  002F20  5003               	movf	___awdiv@divisor^0,w,c
  5921  002F22  5C01               	subwf	___awdiv@dividend^0,w,c
  5922  002F24  5004               	movf	(___awdiv@divisor+1)^0,w,c
  5923  002F26  5802               	subwfb	(___awdiv@dividend+1)^0,w,c
  5924  002F28  A0D8               	btfss	status,0,c
  5925  002F2A  EF99  F017         	goto	u3311
  5926  002F2E  EF9B  F017         	goto	u3310
  5927  002F32                     u3311:
  5928  002F32  EFA0  F017         	goto	l3151
  5929  002F36                     u3310:
  5930  002F36  5003               	movf	___awdiv@divisor^0,w,c
  5931  002F38  5E01               	subwf	___awdiv@dividend^0,f,c
  5932  002F3A  5004               	movf	(___awdiv@divisor+1)^0,w,c
  5933  002F3C  5A02               	subwfb	(___awdiv@dividend+1)^0,f,c
  5934  002F3E  8007               	bsf	___awdiv@quotient^0,0,c
  5935  002F40                     l3151:
  5936  002F40  90D8               	bcf	status,0,c
  5937  002F42  3204               	rrcf	(___awdiv@divisor+1)^0,f,c
  5938  002F44  3203               	rrcf	___awdiv@divisor^0,f,c
  5939  002F46  2E05               	decfsz	___awdiv@counter^0,f,c
  5940  002F48  EF8D  F017         	goto	l3143
  5941  002F4C                     l3155:
  5942  002F4C  5006               	movf	___awdiv@sign^0,w,c
  5943  002F4E  B4D8               	btfsc	status,2,c
  5944  002F50  EFAC  F017         	goto	u3321
  5945  002F54  EFAE  F017         	goto	u3320
  5946  002F58                     u3321:
  5947  002F58  EFB2  F017         	goto	l3159
  5948  002F5C                     u3320:
  5949  002F5C  6C07               	negf	___awdiv@quotient^0,c
  5950  002F5E  1E08               	comf	(___awdiv@quotient+1)^0,f,c
  5951  002F60  B0D8               	btfsc	status,0,c
  5952  002F62  2A08               	incf	(___awdiv@quotient+1)^0,f,c
  5953  002F64                     l3159:
  5954  002F64  C007  F001         	movff	___awdiv@quotient,?___awdiv
  5955  002F68  C008  F002         	movff	___awdiv@quotient+1,?___awdiv+1
  5956  002F6C  0012               	return		;funcret
  5957  002F6E                     __end_of___awdiv:
  5958                           	callstack 0
  5959                           
  5960 ;; *************** function _lcdCommand *****************
  5961 ;; Defined at:
  5962 ;;		line 40 in file "lcd.c"
  5963 ;; Parameters:    Size  Location     Type
  5964 ;;  value           1    wreg     unsigned char 
  5965 ;; Auto vars:     Size  Location     Type
  5966 ;;  value           1   13[COMRAM] unsigned char 
  5967 ;; Return value:  Size  Location     Type
  5968 ;;                  1    wreg      void 
  5969 ;; Registers used:
  5970 ;;		wreg, status,2, status,0, cstack
  5971 ;; Tracked objects:
  5972 ;;		On entry : 0/0
  5973 ;;		On exit  : 0/0
  5974 ;;		Unchanged: 0/0
  5975 ;; Data sizes:     COMRAM   BANK0   BANK1   BANK2   BANK3   BANK4   BANK5
  5976 ;;      Params:         0       0       0       0       0       0       0
  5977 ;;      Locals:         1       0       0       0       0       0       0
  5978 ;;      Temps:          0       0       0       0       0       0       0
  5979 ;;      Totals:         1       0       0       0       0       0       0
  5980 ;;Total ram usage:        1 bytes
  5981 ;; Hardware stack levels used: 1
  5982 ;; Hardware stack levels required when called: 4
  5983 ;; This function calls:
  5984 ;;		_delayMili
  5985 ;;		_pushByte
  5986 ;; This function is called by:
  5987 ;;		_main
  5988 ;;		_configuraPSI
  5989 ;;		_instrucaoLCD
  5990 ;;		_comandos
  5991 ;;		_infoPress
  5992 ;;		_infoTemp
  5993 ;;		_lcdPosition
  5994 ;;		_lcdInit
  5995 ;; This function uses a non-reentrant model
  5996 ;;
  5997                           
  5998                           	psect	text33
  5999  003A1C                     __ptext33:
  6000                           	callstack 0
  6001  003A1C                     _lcdCommand:
  6002                           	callstack 25
  6003                           
  6004                           ;incstack = 0
  6005                           ;lcdCommand@value stored from wreg
  6006  003A1C  6E0E               	movwf	lcdCommand@value^0,c
  6007  003A1E                     
  6008                           ;lcd.c: 41:  pushByte(value, 0);
  6009  003A1E  0E00               	movlw	0
  6010  003A20  6E0B               	movwf	(pushByte@rs+1)^0,c
  6011  003A22  0E00               	movlw	0
  6012  003A24  6E0A               	movwf	pushByte@rs^0,c
  6013  003A26  500E               	movf	lcdCommand@value^0,w,c
  6014  003A28  EC73  F01A         	call	_pushByte
  6015                           
  6016                           ;lcd.c: 42:  delayMili(2);
  6017  003A2C  0E00               	movlw	0
  6018  003A2E  6E02               	movwf	(delayMili@a+1)^0,c
  6019  003A30  0E02               	movlw	2
  6020  003A32  6E01               	movwf	delayMili@a^0,c
  6021  003A34  EC84  F01C         	call	_delayMili	;wreg free
  6022  003A38  0012               	return		;funcret
  6023  003A3A                     __end_of_lcdCommand:
  6024                           	callstack 0
  6025                           
  6026 ;; *************** function _pushByte *****************
  6027 ;; Defined at:
  6028 ;;		line 31 in file "lcd.c"
  6029 ;; Parameters:    Size  Location     Type
  6030 ;;  value           1    wreg     unsigned char 
  6031 ;;  rs              2    9[COMRAM] int 
  6032 ;; Auto vars:     Size  Location     Type
  6033 ;;  value           1   12[COMRAM] unsigned char 
  6034 ;; Return value:  Size  Location     Type
  6035 ;;                  1    wreg      void 
  6036 ;; Registers used:
  6037 ;;		wreg, status,2, status,0, cstack
  6038 ;; Tracked objects:
  6039 ;;		On entry : 0/0
  6040 ;;		On exit  : 0/0
  6041 ;;		Unchanged: 0/0
  6042 ;; Data sizes:     COMRAM   BANK0   BANK1   BANK2   BANK3   BANK4   BANK5
  6043 ;;      Params:         2       0       0       0       0       0       0
  6044 ;;      Locals:         1       0       0       0       0       0       0
  6045 ;;      Temps:          1       0       0       0       0       0       0
  6046 ;;      Totals:         4       0       0       0       0       0       0
  6047 ;;Total ram usage:        4 bytes
  6048 ;; Hardware stack levels used: 1
  6049 ;; Hardware stack levels required when called: 3
  6050 ;; This function calls:
  6051 ;;		_digitalWrite
  6052 ;;		_pulseEnablePin
  6053 ;;		_soWrite
  6054 ;; This function is called by:
  6055 ;;		_lcdCommand
  6056 ;;		_lcdChar
  6057 ;; This function uses a non-reentrant model
  6058 ;;
  6059                           
  6060                           	psect	text34
  6061  0034E6                     __ptext34:
  6062                           	callstack 0
  6063  0034E6                     _pushByte:
  6064                           	callstack 25
  6065                           
  6066                           ;incstack = 0
  6067                           ;pushByte@value stored from wreg
  6068  0034E6  6E0D               	movwf	pushByte@value^0,c
  6069  0034E8                     
  6070                           ;lcd.c: 32:  soWrite(value >> 4);
  6071  0034E8  C00D  F00C         	movff	pushByte@value,??_pushByte
  6072  0034EC  3A0C               	swapf	??_pushByte^0,f,c
  6073  0034EE  0E0F               	movlw	15
  6074  0034F0  160C               	andwf	??_pushByte^0,f,c
  6075  0034F2  500C               	movf	??_pushByte^0,w,c
  6076  0034F4  6E07               	movwf	soWrite@value^0,c
  6077  0034F6  6A08               	clrf	(soWrite@value+1)^0,c
  6078  0034F8  EC4A  F01B         	call	_soWrite	;wreg free
  6079                           
  6080                           ;lcd.c: 33:  digitalWrite(PIN_D5, rs);
  6081  0034FC  0E00               	movlw	0
  6082  0034FE  6E02               	movwf	(digitalWrite@pin+1)^0,c
  6083  003500  0E1D               	movlw	29
  6084  003502  6E01               	movwf	digitalWrite@pin^0,c
  6085  003504  C00A  F003         	movff	pushByte@rs,digitalWrite@value
  6086  003508  C00B  F004         	movff	pushByte@rs+1,digitalWrite@value+1
  6087  00350C  ECFC  F00E         	call	_digitalWrite	;wreg free
  6088                           
  6089                           ;lcd.c: 34:  pulseEnablePin();
  6090  003510  ECB8  F01B         	call	_pulseEnablePin	;wreg free
  6091                           
  6092                           ;lcd.c: 36:  soWrite(value & 0x0F);
  6093  003514  C00D  F00C         	movff	pushByte@value,??_pushByte
  6094  003518  0E0F               	movlw	15
  6095  00351A  160C               	andwf	??_pushByte^0,f,c
  6096  00351C  500C               	movf	??_pushByte^0,w,c
  6097  00351E  6E07               	movwf	soWrite@value^0,c
  6098  003520  6A08               	clrf	(soWrite@value+1)^0,c
  6099  003522  EC4A  F01B         	call	_soWrite	;wreg free
  6100                           
  6101                           ;lcd.c: 37:  digitalWrite(PIN_D5, rs);
  6102  003526  0E00               	movlw	0
  6103  003528  6E02               	movwf	(digitalWrite@pin+1)^0,c
  6104  00352A  0E1D               	movlw	29
  6105  00352C  6E01               	movwf	digitalWrite@pin^0,c
  6106  00352E  C00A  F003         	movff	pushByte@rs,digitalWrite@value
  6107  003532  C00B  F004         	movff	pushByte@rs+1,digitalWrite@value+1
  6108  003536  ECFC  F00E         	call	_digitalWrite	;wreg free
  6109                           
  6110                           ;lcd.c: 38:  pulseEnablePin();
  6111  00353A  ECB8  F01B         	call	_pulseEnablePin	;wreg free
  6112  00353E  0012               	return		;funcret
  6113  003540                     __end_of_pushByte:
  6114                           	callstack 0
  6115                           
  6116 ;; *************** function _pulseEnablePin *****************
  6117 ;; Defined at:
  6118 ;;		line 18 in file "lcd.c"
  6119 ;; Parameters:    Size  Location     Type
  6120 ;;		None
  6121 ;; Auto vars:     Size  Location     Type
  6122 ;;		None
  6123 ;; Return value:  Size  Location     Type
  6124 ;;                  1    wreg      void 
  6125 ;; Registers used:
  6126 ;;		wreg, status,2, status,0, cstack
  6127 ;; Tracked objects:
  6128 ;;		On entry : 0/0
  6129 ;;		On exit  : 0/0
  6130 ;;		Unchanged: 0/0
  6131 ;; Data sizes:     COMRAM   BANK0   BANK1   BANK2   BANK3   BANK4   BANK5
  6132 ;;      Params:         0       0       0       0       0       0       0
  6133 ;;      Locals:         0       0       0       0       0       0       0
  6134 ;;      Temps:          0       0       0       0       0       0       0
  6135 ;;      Totals:         0       0       0       0       0       0       0
  6136 ;;Total ram usage:        0 bytes
  6137 ;; Hardware stack levels used: 1
  6138 ;; Hardware stack levels required when called: 1
  6139 ;; This function calls:
  6140 ;;		_delayMicro
  6141 ;;		_digitalWrite
  6142 ;; This function is called by:
  6143 ;;		_pushNibble
  6144 ;;		_pushByte
  6145 ;; This function uses a non-reentrant model
  6146 ;;
  6147                           
  6148                           	psect	text35
  6149  003770                     __ptext35:
  6150                           	callstack 0
  6151  003770                     _pulseEnablePin:
  6152                           	callstack 26
  6153  003770                     
  6154                           ;lcd.c: 19:  digitalWrite(PIN_D4, 1);
  6155  003770  0E00               	movlw	0
  6156  003772  6E02               	movwf	(digitalWrite@pin+1)^0,c
  6157  003774  0E1C               	movlw	28
  6158  003776  6E01               	movwf	digitalWrite@pin^0,c
  6159  003778  0E00               	movlw	0
  6160  00377A  6E04               	movwf	(digitalWrite@value+1)^0,c
  6161  00377C  0E01               	movlw	1
  6162  00377E  6E03               	movwf	digitalWrite@value^0,c
  6163  003780  ECFC  F00E         	call	_digitalWrite	;wreg free
  6164  003784                     
  6165                           ;lcd.c: 20:  delayMicro(5);
  6166  003784  0E00               	movlw	0
  6167  003786  6E02               	movwf	(delayMicro@a+1)^0,c
  6168  003788  0E05               	movlw	5
  6169  00378A  6E01               	movwf	delayMicro@a^0,c
  6170  00378C  EC31  F01D         	call	_delayMicro	;wreg free
  6171  003790                     
  6172                           ;lcd.c: 21:  digitalWrite(PIN_D4, 0);
  6173  003790  0E00               	movlw	0
  6174  003792  6E02               	movwf	(digitalWrite@pin+1)^0,c
  6175  003794  0E1C               	movlw	28
  6176  003796  6E01               	movwf	digitalWrite@pin^0,c
  6177  003798  0E00               	movlw	0
  6178  00379A  6E04               	movwf	(digitalWrite@value+1)^0,c
  6179  00379C  0E00               	movlw	0
  6180  00379E  6E03               	movwf	digitalWrite@value^0,c
  6181  0037A0  ECFC  F00E         	call	_digitalWrite	;wreg free
  6182                           
  6183                           ;lcd.c: 22:  delayMicro(5);
  6184  0037A4  0E00               	movlw	0
  6185  0037A6  6E02               	movwf	(delayMicro@a+1)^0,c
  6186  0037A8  0E05               	movlw	5
  6187  0037AA  6E01               	movwf	delayMicro@a^0,c
  6188  0037AC  EC31  F01D         	call	_delayMicro	;wreg free
  6189  0037B0  0012               	return		;funcret
  6190  0037B2                     __end_of_pulseEnablePin:
  6191                           	callstack 0
  6192                           
  6193 ;; *************** function _delayMicro *****************
  6194 ;; Defined at:
  6195 ;;		line 5 in file "lcd.c"
  6196 ;; Parameters:    Size  Location     Type
  6197 ;;  a               2    0[COMRAM] int 
  6198 ;; Auto vars:     Size  Location     Type
  6199 ;;  i               2    0        volatile int 
  6200 ;; Return value:  Size  Location     Type
  6201 ;;                  1    wreg      void 
  6202 ;; Registers used:
  6203 ;;		None
  6204 ;; Tracked objects:
  6205 ;;		On entry : 0/0
  6206 ;;		On exit  : 0/0
  6207 ;;		Unchanged: 0/0
  6208 ;; Data sizes:     COMRAM   BANK0   BANK1   BANK2   BANK3   BANK4   BANK5
  6209 ;;      Params:         2       0       0       0       0       0       0
  6210 ;;      Locals:         0       0       0       0       0       0       0
  6211 ;;      Temps:          0       0       0       0       0       0       0
  6212 ;;      Totals:         2       0       0       0       0       0       0
  6213 ;;Total ram usage:        2 bytes
  6214 ;; Hardware stack levels used: 1
  6215 ;; This function calls:
  6216 ;;		Nothing
  6217 ;; This function is called by:
  6218 ;;		_pulseEnablePin
  6219 ;;		_lcdChar
  6220 ;;		_lcdInit
  6221 ;; This function uses a non-reentrant model
  6222 ;;
  6223                           
  6224                           	psect	text36
  6225  003A62                     __ptext36:
  6226                           	callstack 0
  6227  003A62                     _delayMicro:
  6228                           	callstack 26
  6229  003A62  0012               	return		;funcret
  6230  003A64                     __end_of_delayMicro:
  6231                           	callstack 0
  6232                           
  6233 ;; *************** function _delayMili *****************
  6234 ;; Defined at:
  6235 ;;		line 10 in file "lcd.c"
  6236 ;; Parameters:    Size  Location     Type
  6237 ;;  a               2    0[COMRAM] int 
  6238 ;; Auto vars:     Size  Location     Type
  6239 ;;  i               2    3[COMRAM] volatile int 
  6240 ;; Return value:  Size  Location     Type
  6241 ;;                  1    wreg      void 
  6242 ;; Registers used:
  6243 ;;		wreg, status,2, status,0
  6244 ;; Tracked objects:
  6245 ;;		On entry : 0/0
  6246 ;;		On exit  : 0/0
  6247 ;;		Unchanged: 0/0
  6248 ;; Data sizes:     COMRAM   BANK0   BANK1   BANK2   BANK3   BANK4   BANK5
  6249 ;;      Params:         2       0       0       0       0       0       0
  6250 ;;      Locals:         2       0       0       0       0       0       0
  6251 ;;      Temps:          1       0       0       0       0       0       0
  6252 ;;      Totals:         5       0       0       0       0       0       0
  6253 ;;Total ram usage:        5 bytes
  6254 ;; Hardware stack levels used: 1
  6255 ;; This function calls:
  6256 ;;		Nothing
  6257 ;; This function is called by:
  6258 ;;		_lcdCommand
  6259 ;;		_lcdInit
  6260 ;; This function uses a non-reentrant model
  6261 ;;
  6262                           
  6263                           	psect	text37
  6264  003908                     __ptext37:
  6265                           	callstack 0
  6266  003908                     _delayMili:
  6267                           	callstack 28
  6268  003908                     
  6269                           ;lcd.c: 11:  volatile int i;;lcd.c: 12:  for (i = 0; i < a; i++) {
  6270  003908  0E00               	movlw	0
  6271  00390A  6E05               	movwf	(delayMili@i+1)^0,c	;volatile
  6272  00390C  0E00               	movlw	0
  6273  00390E  6E04               	movwf	delayMili@i^0,c	;volatile
  6274  003910  EF8C  F01C         	goto	l2915
  6275  003914                     l2913:
  6276                           
  6277                           ;lcd.c: 15:  }
  6278  003914  4A04               	infsnz	delayMili@i^0,f,c	;volatile
  6279  003916  2A05               	incf	(delayMili@i+1)^0,f,c	;volatile
  6280  003918                     l2915:
  6281  003918  5001               	movf	delayMili@a^0,w,c
  6282  00391A  5C04               	subwf	delayMili@i^0,w,c	;volatile
  6283  00391C  5005               	movf	(delayMili@i+1)^0,w,c	;volatile
  6284  00391E  0A80               	xorlw	128
  6285  003920  6E03               	movwf	??_delayMili^0,c
  6286  003922  5002               	movf	(delayMili@a+1)^0,w,c
  6287  003924  0A80               	xorlw	128
  6288  003926  5803               	subwfb	??_delayMili^0,w,c
  6289  003928  A0D8               	btfss	status,0,c
  6290  00392A  EF99  F01C         	goto	u2871
  6291  00392E  EF9B  F01C         	goto	u2870
  6292  003932                     u2871:
  6293  003932  EF8A  F01C         	goto	l2913
  6294  003936                     u2870:
  6295  003936  0012               	return		;funcret
  6296  003938                     __end_of_delayMili:
  6297                           	callstack 0
  6298                           
  6299 ;; *************** function _kpReadKey *****************
  6300 ;; Defined at:
  6301 ;;		line 17 in file "keypad.c"
  6302 ;; Parameters:    Size  Location     Type
  6303 ;;		None
  6304 ;; Auto vars:     Size  Location     Type
  6305 ;;  i               2    3[COMRAM] int 
  6306 ;; Return value:  Size  Location     Type
  6307 ;;                  1    wreg      unsigned char 
  6308 ;; Registers used:
  6309 ;;		wreg, status,2, status,0, tblptrl, tblptrh, tblptru
  6310 ;; Tracked objects:
  6311 ;;		On entry : 0/0
  6312 ;;		On exit  : 0/0
  6313 ;;		Unchanged: 0/0
  6314 ;; Data sizes:     COMRAM   BANK0   BANK1   BANK2   BANK3   BANK4   BANK5
  6315 ;;      Params:         0       0       0       0       0       0       0
  6316 ;;      Locals:         2       0       0       0       0       0       0
  6317 ;;      Temps:          3       0       0       0       0       0       0
  6318 ;;      Totals:         5       0       0       0       0       0       0
  6319 ;;Total ram usage:        5 bytes
  6320 ;; Hardware stack levels used: 1
  6321 ;; This function calls:
  6322 ;;		Nothing
  6323 ;; This function is called by:
  6324 ;;		_main
  6325 ;;		_comandos
  6326 ;; This function uses a non-reentrant model
  6327 ;;
  6328                           
  6329                           	psect	text38
  6330  003182                     __ptext38:
  6331                           	callstack 0
  6332  003182                     _kpReadKey:
  6333                           	callstack 30
  6334  003182                     
  6335                           ;keypad.c: 18:  int i;;keypad.c: 19:  for(i=0;i<10;i++){
  6336  003182  0E00               	movlw	0
  6337  003184  6E05               	movwf	(kpReadKey@i+1)^0,c
  6338  003186  0E00               	movlw	0
  6339  003188  6E04               	movwf	kpReadKey@i^0,c
  6340  00318A                     l3241:
  6341                           
  6342                           ;keypad.c: 20:   if (((keys) & (1<<(i)))){
  6343  00318A  C004  F001         	movff	kpReadKey@i,??_kpReadKey
  6344  00318E  0E01               	movlw	1
  6345  003190  6E02               	movwf	(??_kpReadKey+1)^0,c
  6346  003192  0E00               	movlw	0
  6347  003194  6E03               	movwf	(??_kpReadKey+2)^0,c
  6348  003196  2A01               	incf	??_kpReadKey^0,f,c
  6349  003198  EFD1  F018         	goto	u3484
  6350  00319C                     u3485:
  6351  00319C  90D8               	bcf	status,0,c
  6352  00319E  3602               	rlcf	(??_kpReadKey+1)^0,f,c
  6353  0031A0  3603               	rlcf	(??_kpReadKey+2)^0,f,c
  6354  0031A2                     u3484:
  6355  0031A2  2E01               	decfsz	??_kpReadKey^0,f,c
  6356  0031A4  EFCE  F018         	goto	u3485
  6357  0031A8  0100               	movlb	0	; () banked
  6358  0031AA  51A0               	movf	_keys& (0+255),w,b
  6359  0031AC  1602               	andwf	(??_kpReadKey+1)^0,f,c
  6360  0031AE  51A1               	movf	(_keys+1)& (0+255),w,b
  6361  0031B0  1603               	andwf	(??_kpReadKey+2)^0,f,c
  6362  0031B2  5002               	movf	(??_kpReadKey+1)^0,w,c
  6363  0031B4  1003               	iorwf	(??_kpReadKey+2)^0,w,c
  6364  0031B6  B4D8               	btfsc	status,2,c
  6365  0031B8  EFE0  F018         	goto	u3491
  6366  0031BC  EFE2  F018         	goto	u3490
  6367  0031C0                     u3491:
  6368  0031C0  EFEC  F018         	goto	l3247
  6369  0031C4                     u3490:
  6370  0031C4                     
  6371                           ; BSR set to: 0
  6372                           ;keypad.c: 21:    return charKey[i];
  6373  0031C4  0E11               	movlw	low _charKey
  6374  0031C6  2404               	addwf	kpReadKey@i^0,w,c
  6375  0031C8  6EF6               	movwf	tblptrl,c
  6376  0031CA  0E06               	movlw	high _charKey
  6377  0031CC  2005               	addwfc	(kpReadKey@i+1)^0,w,c
  6378  0031CE  6EF7               	movwf	tblptrh,c
  6379  0031D0                     	if	0	;There are less than 3 active tblptr bytes
  6380  0031D0                     	endif
  6381  0031D0  0008               	tblrd		*
  6382  0031D2  50F5               	movf	tablat,w,c
  6383  0031D4  EFFD  F018         	goto	l313
  6384  0031D8                     l3247:
  6385                           
  6386                           ; BSR set to: 0
  6387                           ;keypad.c: 23:  }
  6388  0031D8  4A04               	infsnz	kpReadKey@i^0,f,c
  6389  0031DA  2A05               	incf	(kpReadKey@i+1)^0,f,c
  6390  0031DC                     
  6391                           ; BSR set to: 0
  6392  0031DC  BE05               	btfsc	(kpReadKey@i+1)^0,7,c
  6393  0031DE  EFFA  F018         	goto	u3501
  6394  0031E2  5005               	movf	(kpReadKey@i+1)^0,w,c
  6395  0031E4  E109               	bnz	u3500
  6396  0031E6  0E0A               	movlw	10
  6397  0031E8  5C04               	subwf	kpReadKey@i^0,w,c
  6398  0031EA  A0D8               	btfss	status,0,c
  6399  0031EC  EFFA  F018         	goto	u3501
  6400  0031F0  EFFC  F018         	goto	u3500
  6401  0031F4                     u3501:
  6402  0031F4  EFC5  F018         	goto	l3241
  6403  0031F8                     u3500:
  6404  0031F8                     
  6405                           ; BSR set to: 0
  6406                           ;keypad.c: 25:  return 0;
  6407  0031F8  0E00               	movlw	0
  6408  0031FA                     l313:
  6409                           
  6410                           ; BSR set to: 0
  6411  0031FA  0012               	return		;funcret
  6412  0031FC                     __end_of_kpReadKey:
  6413                           	callstack 0
  6414                           
  6415 ;; *************** function _kpDebounce *****************
  6416 ;; Defined at:
  6417 ;;		line 27 in file "keypad.c"
  6418 ;; Parameters:    Size  Location     Type
  6419 ;;		None
  6420 ;; Auto vars:     Size  Location     Type
  6421 ;;  i               2   12[COMRAM] int 
  6422 ;; Return value:  Size  Location     Type
  6423 ;;                  1    wreg      void 
  6424 ;; Registers used:
  6425 ;;		wreg, status,2, status,0, cstack
  6426 ;; Tracked objects:
  6427 ;;		On entry : 0/0
  6428 ;;		On exit  : 0/0
  6429 ;;		Unchanged: 0/0
  6430 ;; Data sizes:     COMRAM   BANK0   BANK1   BANK2   BANK3   BANK4   BANK5
  6431 ;;      Params:         0       0       0       0       0       0       0
  6432 ;;      Locals:         2       0       0       0       0       0       0
  6433 ;;      Temps:          3       0       0       0       0       0       0
  6434 ;;      Totals:         5       0       0       0       0       0       0
  6435 ;;Total ram usage:        5 bytes
  6436 ;; Hardware stack levels used: 1
  6437 ;; Hardware stack levels required when called: 3
  6438 ;; This function calls:
  6439 ;;		_digitalRead
  6440 ;;		_soWrite
  6441 ;; This function is called by:
  6442 ;;		_main
  6443 ;;		_configuraPSI
  6444 ;;		_comandos
  6445 ;; This function uses a non-reentrant model
  6446 ;;
  6447                           
  6448                           	psect	text39
  6449  0028B8                     __ptext39:
  6450                           	callstack 0
  6451  0028B8                     _kpDebounce:
  6452                           	callstack 27
  6453  0028B8                     
  6454                           ;keypad.c: 28:     int i;;keypad.c: 29:     static unsigned char tempo;;keypad.c: 30:   
      +                            static unsigned int newRead;;keypad.c: 31:     static unsigned int oldRead;;keypad.c: 
      +                          32:     newRead = 0;
  6455  0028B8  0E00               	movlw	0
  6456  0028BA  0100               	movlb	0	; () banked
  6457  0028BC  6F9F               	movwf	(kpDebounce@newRead+1)& (0+255),b
  6458  0028BE  0E00               	movlw	0
  6459  0028C0  6F9E               	movwf	kpDebounce@newRead& (0+255),b
  6460                           
  6461                           ;keypad.c: 33:     for(i = 0; i<5; i++){
  6462  0028C2  0E00               	movlw	0
  6463  0028C4  6E0E               	movwf	(kpDebounce@i+1)^0,c
  6464  0028C6  0E00               	movlw	0
  6465  0028C8  6E0D               	movwf	kpDebounce@i^0,c
  6466  0028CA                     l3209:
  6467  0028CA  BE0E               	btfsc	(kpDebounce@i+1)^0,7,c
  6468  0028CC  EF71  F014         	goto	u3401
  6469  0028D0  500E               	movf	(kpDebounce@i+1)^0,w,c
  6470  0028D2  E109               	bnz	u3400
  6471  0028D4  0E05               	movlw	5
  6472  0028D6  5C0D               	subwf	kpDebounce@i^0,w,c
  6473  0028D8  A0D8               	btfss	status,0,c
  6474  0028DA  EF71  F014         	goto	u3401
  6475  0028DE  EF73  F014         	goto	u3400
  6476  0028E2                     u3401:
  6477  0028E2  EF75  F014         	goto	l3213
  6478  0028E6                     u3400:
  6479  0028E6  EFD8  F014         	goto	l3225
  6480  0028EA                     l3213:
  6481                           
  6482                           ;keypad.c: 35:       soWrite(1<<(i+3));
  6483  0028EA  C00D  F00A         	movff	kpDebounce@i,??_kpDebounce
  6484  0028EE  0E03               	movlw	3
  6485  0028F0  260A               	addwf	??_kpDebounce^0,f,c
  6486  0028F2  0E01               	movlw	1
  6487  0028F4  6E0B               	movwf	(??_kpDebounce+1)^0,c
  6488  0028F6  0E00               	movlw	0
  6489  0028F8  6E0C               	movwf	(??_kpDebounce+2)^0,c
  6490  0028FA  2A0A               	incf	??_kpDebounce^0,f,c
  6491  0028FC  EF83  F014         	goto	u3414
  6492  002900                     u3415:
  6493  002900  90D8               	bcf	status,0,c
  6494  002902  360B               	rlcf	(??_kpDebounce+1)^0,f,c
  6495  002904  360C               	rlcf	(??_kpDebounce+2)^0,f,c
  6496  002906                     u3414:
  6497  002906  2E0A               	decfsz	??_kpDebounce^0,f,c
  6498  002908  EF80  F014         	goto	u3415
  6499  00290C  C00B  F007         	movff	??_kpDebounce+1,soWrite@value
  6500  002910  C00C  F008         	movff	??_kpDebounce+2,soWrite@value+1
  6501  002914  EC4A  F01B         	call	_soWrite	;wreg free
  6502                           
  6503                           ;keypad.c: 36:       if(digitalRead(PIN_B2)){
  6504  002918  0E00               	movlw	0
  6505  00291A  6E02               	movwf	(digitalRead@pin+1)^0,c
  6506  00291C  0E0A               	movlw	10
  6507  00291E  6E01               	movwf	digitalRead@pin^0,c
  6508  002920  ECA7  F013         	call	_digitalRead	;wreg free
  6509  002924  5001               	movf	?_digitalRead^0,w,c
  6510  002926  1002               	iorwf	(?_digitalRead+1)^0,w,c
  6511  002928  B4D8               	btfsc	status,2,c
  6512  00292A  EF99  F014         	goto	u3421
  6513  00292E  EF9B  F014         	goto	u3420
  6514  002932                     u3421:
  6515  002932  EFAF  F014         	goto	l3217
  6516  002936                     u3420:
  6517  002936                     
  6518                           ;keypad.c: 37:         ((newRead) |= (1<<(i)));
  6519  002936  C00D  F00A         	movff	kpDebounce@i,??_kpDebounce
  6520  00293A  0E01               	movlw	1
  6521  00293C  6E0B               	movwf	(??_kpDebounce+1)^0,c
  6522  00293E  0E00               	movlw	0
  6523  002940  6E0C               	movwf	(??_kpDebounce+2)^0,c
  6524  002942  2A0A               	incf	??_kpDebounce^0,f,c
  6525  002944  EFA7  F014         	goto	u3434
  6526  002948                     u3435:
  6527  002948  90D8               	bcf	status,0,c
  6528  00294A  360B               	rlcf	(??_kpDebounce+1)^0,f,c
  6529  00294C  360C               	rlcf	(??_kpDebounce+2)^0,f,c
  6530  00294E                     u3434:
  6531  00294E  2E0A               	decfsz	??_kpDebounce^0,f,c
  6532  002950  EFA4  F014         	goto	u3435
  6533  002954  500B               	movf	(??_kpDebounce+1)^0,w,c
  6534  002956  0100               	movlb	0	; () banked
  6535  002958  139E               	iorwf	kpDebounce@newRead& (0+255),f,b
  6536  00295A  500C               	movf	(??_kpDebounce+2)^0,w,c
  6537  00295C  139F               	iorwf	(kpDebounce@newRead+1)& (0+255),f,b
  6538  00295E                     l3217:
  6539                           
  6540                           ;keypad.c: 39:       if(digitalRead(PIN_B1)){
  6541  00295E  0E00               	movlw	0
  6542  002960  6E02               	movwf	(digitalRead@pin+1)^0,c
  6543  002962  0E09               	movlw	9
  6544  002964  6E01               	movwf	digitalRead@pin^0,c
  6545  002966  ECA7  F013         	call	_digitalRead	;wreg free
  6546  00296A  5001               	movf	?_digitalRead^0,w,c
  6547  00296C  1002               	iorwf	(?_digitalRead+1)^0,w,c
  6548  00296E  B4D8               	btfsc	status,2,c
  6549  002970  EFBC  F014         	goto	u3441
  6550  002974  EFBE  F014         	goto	u3440
  6551  002978                     u3441:
  6552  002978  EFD4  F014         	goto	l3221
  6553  00297C                     u3440:
  6554  00297C                     
  6555                           ;keypad.c: 40:         ((newRead) |= (1<<((i+5))));
  6556  00297C  C00D  F00A         	movff	kpDebounce@i,??_kpDebounce
  6557  002980  0E05               	movlw	5
  6558  002982  260A               	addwf	??_kpDebounce^0,f,c
  6559  002984  0E01               	movlw	1
  6560  002986  6E0B               	movwf	(??_kpDebounce+1)^0,c
  6561  002988  0E00               	movlw	0
  6562  00298A  6E0C               	movwf	(??_kpDebounce+2)^0,c
  6563  00298C  2A0A               	incf	??_kpDebounce^0,f,c
  6564  00298E  EFCC  F014         	goto	u3454
  6565  002992                     u3455:
  6566  002992  90D8               	bcf	status,0,c
  6567  002994  360B               	rlcf	(??_kpDebounce+1)^0,f,c
  6568  002996  360C               	rlcf	(??_kpDebounce+2)^0,f,c
  6569  002998                     u3454:
  6570  002998  2E0A               	decfsz	??_kpDebounce^0,f,c
  6571  00299A  EFC9  F014         	goto	u3455
  6572  00299E  500B               	movf	(??_kpDebounce+1)^0,w,c
  6573  0029A0  0100               	movlb	0	; () banked
  6574  0029A2  139E               	iorwf	kpDebounce@newRead& (0+255),f,b
  6575  0029A4  500C               	movf	(??_kpDebounce+2)^0,w,c
  6576  0029A6  139F               	iorwf	(kpDebounce@newRead+1)& (0+255),f,b
  6577  0029A8                     l3221:
  6578                           
  6579                           ;keypad.c: 42:     }
  6580  0029A8  4A0D               	infsnz	kpDebounce@i^0,f,c
  6581  0029AA  2A0E               	incf	(kpDebounce@i+1)^0,f,c
  6582  0029AC  EF65  F014         	goto	l3209
  6583  0029B0                     l3225:
  6584                           
  6585                           ;keypad.c: 43:     if (oldRead == newRead) {
  6586  0029B0  0100               	movlb	0	; () banked
  6587  0029B2  519E               	movf	kpDebounce@newRead& (0+255),w,b
  6588  0029B4  199C               	xorwf	kpDebounce@oldRead& (0+255),w,b
  6589  0029B6  E107               	bnz	u3461
  6590  0029B8  519F               	movf	(kpDebounce@newRead+1)& (0+255),w,b
  6591  0029BA  199D               	xorwf	(kpDebounce@oldRead+1)& (0+255),w,b
  6592  0029BC  A4D8               	btfss	status,2,c
  6593  0029BE  EFE3  F014         	goto	u3461
  6594  0029C2  EFE5  F014         	goto	u3460
  6595  0029C6                     u3461:
  6596  0029C6  EFE8  F014         	goto	l3229
  6597  0029CA                     u3460:
  6598  0029CA                     
  6599                           ; BSR set to: 0
  6600                           ;keypad.c: 44:         tempo--;
  6601  0029CA  0675               	decf	kpDebounce@tempo^0,f,c
  6602                           
  6603                           ;keypad.c: 45:     } else {
  6604  0029CC  EFEE  F014         	goto	l327
  6605  0029D0                     l3229:
  6606                           
  6607                           ; BSR set to: 0
  6608                           ;keypad.c: 46:         tempo = 1;
  6609  0029D0  0E01               	movlw	1
  6610  0029D2  6E75               	movwf	kpDebounce@tempo^0,c
  6611  0029D4                     
  6612                           ; BSR set to: 0
  6613                           ;keypad.c: 47:         oldRead = newRead;
  6614  0029D4  C09E  F09C         	movff	kpDebounce@newRead,kpDebounce@oldRead
  6615  0029D8  C09F  F09D         	movff	kpDebounce@newRead+1,kpDebounce@oldRead+1
  6616  0029DC                     l327:
  6617                           
  6618                           ; BSR set to: 0
  6619                           ;keypad.c: 49:     if (tempo == 0) {
  6620  0029DC  5075               	movf	kpDebounce@tempo^0,w,c
  6621  0029DE  A4D8               	btfss	status,2,c
  6622  0029E0  EFF4  F014         	goto	u3471
  6623  0029E4  EFF6  F014         	goto	u3470
  6624  0029E8                     u3471:
  6625  0029E8  EFFA  F014         	goto	l329
  6626  0029EC                     u3470:
  6627  0029EC                     
  6628                           ; BSR set to: 0
  6629                           ;keypad.c: 50:         keys = oldRead;
  6630  0029EC  C09C  F0A0         	movff	kpDebounce@oldRead,_keys
  6631  0029F0  C09D  F0A1         	movff	kpDebounce@oldRead+1,_keys+1
  6632  0029F4                     l329:
  6633                           
  6634                           ; BSR set to: 0
  6635  0029F4  0012               	return		;funcret
  6636  0029F6                     __end_of_kpDebounce:
  6637                           	callstack 0
  6638                           
  6639 ;; *************** function _soWrite *****************
  6640 ;; Defined at:
  6641 ;;		line 18 in file "so.c"
  6642 ;; Parameters:    Size  Location     Type
  6643 ;;  value           2    6[COMRAM] int 
  6644 ;; Auto vars:     Size  Location     Type
  6645 ;;  i               1    8[COMRAM] unsigned char 
  6646 ;; Return value:  Size  Location     Type
  6647 ;;                  1    wreg      void 
  6648 ;; Registers used:
  6649 ;;		wreg, status,2, status,0, cstack
  6650 ;; Tracked objects:
  6651 ;;		On entry : 0/0
  6652 ;;		On exit  : 0/0
  6653 ;;		Unchanged: 0/0
  6654 ;; Data sizes:     COMRAM   BANK0   BANK1   BANK2   BANK3   BANK4   BANK5
  6655 ;;      Params:         2       0       0       0       0       0       0
  6656 ;;      Locals:         1       0       0       0       0       0       0
  6657 ;;      Temps:          0       0       0       0       0       0       0
  6658 ;;      Totals:         3       0       0       0       0       0       0
  6659 ;;Total ram usage:        3 bytes
  6660 ;; Hardware stack levels used: 1
  6661 ;; Hardware stack levels required when called: 2
  6662 ;; This function calls:
  6663 ;;		_PulseClockData
  6664 ;;		_PulseEnClock
  6665 ;;		_digitalWrite
  6666 ;; This function is called by:
  6667 ;;		_kpDebounce
  6668 ;;		_pushNibble
  6669 ;;		_pushByte
  6670 ;;		_ssdUpdate
  6671 ;; This function uses a non-reentrant model
  6672 ;;
  6673                           
  6674                           	psect	text40
  6675  003694                     __ptext40:
  6676                           	callstack 0
  6677  003694                     _soWrite:
  6678                           	callstack 26
  6679  003694                     
  6680                           ;so.c: 19:  char i;;so.c: 20:  digitalWrite(PIN_B0, 0);
  6681  003694  0E00               	movlw	0
  6682  003696  6E02               	movwf	(digitalWrite@pin+1)^0,c
  6683  003698  0E08               	movlw	8
  6684  00369A  6E01               	movwf	digitalWrite@pin^0,c
  6685  00369C  0E00               	movlw	0
  6686  00369E  6E04               	movwf	(digitalWrite@value+1)^0,c
  6687  0036A0  0E00               	movlw	0
  6688  0036A2  6E03               	movwf	digitalWrite@value^0,c
  6689  0036A4  ECFC  F00E         	call	_digitalWrite	;wreg free
  6690  0036A8                     
  6691                           ;so.c: 21:  for (i = 0; i < 8; i++) {
  6692  0036A8  0E00               	movlw	0
  6693  0036AA  6E09               	movwf	soWrite@i^0,c
  6694  0036AC                     l2851:
  6695                           
  6696                           ;so.c: 22:   digitalWrite(PIN_D6, value & 0x80);
  6697  0036AC  0E00               	movlw	0
  6698  0036AE  6E02               	movwf	(digitalWrite@pin+1)^0,c
  6699  0036B0  0E1E               	movlw	30
  6700  0036B2  6E01               	movwf	digitalWrite@pin^0,c
  6701  0036B4  0E80               	movlw	128
  6702  0036B6  1407               	andwf	soWrite@value^0,w,c
  6703  0036B8  6E03               	movwf	digitalWrite@value^0,c
  6704  0036BA  6A04               	clrf	(digitalWrite@value+1)^0,c
  6705  0036BC  ECFC  F00E         	call	_digitalWrite	;wreg free
  6706                           
  6707                           ;so.c: 23:   PulseClockData();
  6708  0036C0  ECB1  F01C         	call	_PulseClockData	;wreg free
  6709  0036C4                     
  6710                           ;so.c: 24:   value <<= 1;
  6711  0036C4  90D8               	bcf	status,0,c
  6712  0036C6  3607               	rlcf	soWrite@value^0,f,c
  6713  0036C8  3608               	rlcf	(soWrite@value+1)^0,f,c
  6714  0036CA                     
  6715                           ;so.c: 25:  }
  6716  0036CA  2A09               	incf	soWrite@i^0,f,c
  6717  0036CC  0E07               	movlw	7
  6718  0036CE  6409               	cpfsgt	soWrite@i^0,c
  6719  0036D0  EF6C  F01B         	goto	u2761
  6720  0036D4  EF6E  F01B         	goto	u2760
  6721  0036D8                     u2761:
  6722  0036D8  EF56  F01B         	goto	l2851
  6723  0036DC                     u2760:
  6724  0036DC                     
  6725                           ;so.c: 26:  PulseEnClock();
  6726  0036DC  EC9C  F01C         	call	_PulseEnClock	;wreg free
  6727  0036E0  0012               	return		;funcret
  6728  0036E2                     __end_of_soWrite:
  6729                           	callstack 0
  6730                           
  6731 ;; *************** function _PulseEnClock *****************
  6732 ;; Defined at:
  6733 ;;		line 9 in file "so.c"
  6734 ;; Parameters:    Size  Location     Type
  6735 ;;		None
  6736 ;; Auto vars:     Size  Location     Type
  6737 ;;		None
  6738 ;; Return value:  Size  Location     Type
  6739 ;;                  1    wreg      void 
  6740 ;; Registers used:
  6741 ;;		wreg, status,2, status,0, cstack
  6742 ;; Tracked objects:
  6743 ;;		On entry : 0/0
  6744 ;;		On exit  : 0/0
  6745 ;;		Unchanged: 0/0
  6746 ;; Data sizes:     COMRAM   BANK0   BANK1   BANK2   BANK3   BANK4   BANK5
  6747 ;;      Params:         0       0       0       0       0       0       0
  6748 ;;      Locals:         0       0       0       0       0       0       0
  6749 ;;      Temps:          0       0       0       0       0       0       0
  6750 ;;      Totals:         0       0       0       0       0       0       0
  6751 ;;Total ram usage:        0 bytes
  6752 ;; Hardware stack levels used: 1
  6753 ;; Hardware stack levels required when called: 1
  6754 ;; This function calls:
  6755 ;;		_digitalWrite
  6756 ;; This function is called by:
  6757 ;;		_soWrite
  6758 ;; This function uses a non-reentrant model
  6759 ;;
  6760                           
  6761                           	psect	text41
  6762  003938                     __ptext41:
  6763                           	callstack 0
  6764  003938                     _PulseEnClock:
  6765                           	callstack 26
  6766  003938                     
  6767                           ;so.c: 10:  digitalWrite(PIN_D7, 1);
  6768  003938  0E00               	movlw	0
  6769  00393A  6E02               	movwf	(digitalWrite@pin+1)^0,c
  6770  00393C  0E1F               	movlw	31
  6771  00393E  6E01               	movwf	digitalWrite@pin^0,c
  6772  003940  0E00               	movlw	0
  6773  003942  6E04               	movwf	(digitalWrite@value+1)^0,c
  6774  003944  0E01               	movlw	1
  6775  003946  6E03               	movwf	digitalWrite@value^0,c
  6776  003948  ECFC  F00E         	call	_digitalWrite	;wreg free
  6777                           
  6778                           ;so.c: 11:  digitalWrite(PIN_D7, 0);
  6779  00394C  0E00               	movlw	0
  6780  00394E  6E02               	movwf	(digitalWrite@pin+1)^0,c
  6781  003950  0E1F               	movlw	31
  6782  003952  6E01               	movwf	digitalWrite@pin^0,c
  6783  003954  0E00               	movlw	0
  6784  003956  6E04               	movwf	(digitalWrite@value+1)^0,c
  6785  003958  0E00               	movlw	0
  6786  00395A  6E03               	movwf	digitalWrite@value^0,c
  6787  00395C  ECFC  F00E         	call	_digitalWrite	;wreg free
  6788  003960  0012               	return		;funcret
  6789  003962                     __end_of_PulseEnClock:
  6790                           	callstack 0
  6791                           
  6792 ;; *************** function _PulseClockData *****************
  6793 ;; Defined at:
  6794 ;;		line 14 in file "so.c"
  6795 ;; Parameters:    Size  Location     Type
  6796 ;;		None
  6797 ;; Auto vars:     Size  Location     Type
  6798 ;;		None
  6799 ;; Return value:  Size  Location     Type
  6800 ;;                  1    wreg      void 
  6801 ;; Registers used:
  6802 ;;		wreg, status,2, status,0, cstack
  6803 ;; Tracked objects:
  6804 ;;		On entry : 0/0
  6805 ;;		On exit  : 0/0
  6806 ;;		Unchanged: 0/0
  6807 ;; Data sizes:     COMRAM   BANK0   BANK1   BANK2   BANK3   BANK4   BANK5
  6808 ;;      Params:         0       0       0       0       0       0       0
  6809 ;;      Locals:         0       0       0       0       0       0       0
  6810 ;;      Temps:          0       0       0       0       0       0       0
  6811 ;;      Totals:         0       0       0       0       0       0       0
  6812 ;;Total ram usage:        0 bytes
  6813 ;; Hardware stack levels used: 1
  6814 ;; Hardware stack levels required when called: 1
  6815 ;; This function calls:
  6816 ;;		_digitalWrite
  6817 ;; This function is called by:
  6818 ;;		_soWrite
  6819 ;; This function uses a non-reentrant model
  6820 ;;
  6821                           
  6822                           	psect	text42
  6823  003962                     __ptext42:
  6824                           	callstack 0
  6825  003962                     _PulseClockData:
  6826                           	callstack 26
  6827  003962                     
  6828                           ;so.c: 15:  digitalWrite(PIN_B0, 1);
  6829  003962  0E00               	movlw	0
  6830  003964  6E02               	movwf	(digitalWrite@pin+1)^0,c
  6831  003966  0E08               	movlw	8
  6832  003968  6E01               	movwf	digitalWrite@pin^0,c
  6833  00396A  0E00               	movlw	0
  6834  00396C  6E04               	movwf	(digitalWrite@value+1)^0,c
  6835  00396E  0E01               	movlw	1
  6836  003970  6E03               	movwf	digitalWrite@value^0,c
  6837  003972  ECFC  F00E         	call	_digitalWrite	;wreg free
  6838                           
  6839                           ;so.c: 16:  digitalWrite(PIN_B0, 0);
  6840  003976  0E00               	movlw	0
  6841  003978  6E02               	movwf	(digitalWrite@pin+1)^0,c
  6842  00397A  0E08               	movlw	8
  6843  00397C  6E01               	movwf	digitalWrite@pin^0,c
  6844  00397E  0E00               	movlw	0
  6845  003980  6E04               	movwf	(digitalWrite@value+1)^0,c
  6846  003982  0E00               	movlw	0
  6847  003984  6E03               	movwf	digitalWrite@value^0,c
  6848  003986  ECFC  F00E         	call	_digitalWrite	;wreg free
  6849  00398A  0012               	return		;funcret
  6850  00398C                     __end_of_PulseClockData:
  6851                           	callstack 0
  6852                           
  6853 ;; *************** function _digitalWrite *****************
  6854 ;; Defined at:
  6855 ;;		line 14 in file "io.c"
  6856 ;; Parameters:    Size  Location     Type
  6857 ;;  pin             2    0[COMRAM] int 
  6858 ;;  value           2    2[COMRAM] int 
  6859 ;; Auto vars:     Size  Location     Type
  6860 ;;		None
  6861 ;; Return value:  Size  Location     Type
  6862 ;;                  1    wreg      void 
  6863 ;; Registers used:
  6864 ;;		wreg, status,2, status,0
  6865 ;; Tracked objects:
  6866 ;;		On entry : 0/0
  6867 ;;		On exit  : 0/0
  6868 ;;		Unchanged: 0/0
  6869 ;; Data sizes:     COMRAM   BANK0   BANK1   BANK2   BANK3   BANK4   BANK5
  6870 ;;      Params:         4       0       0       0       0       0       0
  6871 ;;      Locals:         0       0       0       0       0       0       0
  6872 ;;      Temps:          2       0       0       0       0       0       0
  6873 ;;      Totals:         6       0       0       0       0       0       0
  6874 ;;Total ram usage:        6 bytes
  6875 ;; Hardware stack levels used: 1
  6876 ;; This function calls:
  6877 ;;		Nothing
  6878 ;; This function is called by:
  6879 ;;		_pulseEnablePin
  6880 ;;		_pushNibble
  6881 ;;		_pushByte
  6882 ;;		_rgbColor
  6883 ;;		_PulseEnClock
  6884 ;;		_PulseClockData
  6885 ;;		_soWrite
  6886 ;;		_ssdUpdate
  6887 ;;		_turnOn
  6888 ;;		_turnOff
  6889 ;; This function uses a non-reentrant model
  6890 ;;
  6891                           
  6892                           	psect	text43
  6893  001DF8                     __ptext43:
  6894                           	callstack 0
  6895  001DF8                     _digitalWrite:
  6896                           	callstack 27
  6897  001DF8                     
  6898                           ;io.c: 16:     if(pin <8){
  6899  001DF8  BE02               	btfsc	(digitalWrite@pin+1)^0,7,c
  6900  001DFA  EF0A  F00F         	goto	u2560
  6901  001DFE  5002               	movf	(digitalWrite@pin+1)^0,w,c
  6902  001E00  E107               	bnz	u2561
  6903  001E02  0E08               	movlw	8
  6904  001E04  5C01               	subwf	digitalWrite@pin^0,w,c
  6905  001E06  B0D8               	btfsc	status,0,c
  6906  001E08  EF08  F00F         	goto	u2561
  6907  001E0C  EF0A  F00F         	goto	u2560
  6908  001E10                     u2561:
  6909  001E10  EF34  F00F         	goto	l2807
  6910  001E14                     u2560:
  6911  001E14                     
  6912                           ;io.c: 17:         if (value){ ((PORTA) |= (1<<(pin)));}
  6913  001E14  5003               	movf	digitalWrite@value^0,w,c
  6914  001E16  1004               	iorwf	(digitalWrite@value+1)^0,w,c
  6915  001E18  B4D8               	btfsc	status,2,c
  6916  001E1A  EF11  F00F         	goto	u2571
  6917  001E1E  EF13  F00F         	goto	u2570
  6918  001E22                     u2571:
  6919  001E22  EF23  F00F         	goto	l2805
  6920  001E26                     u2570:
  6921  001E26  C001  F005         	movff	digitalWrite@pin,??_digitalWrite
  6922  001E2A  0E01               	movlw	1
  6923  001E2C  6E06               	movwf	(??_digitalWrite+1)^0,c
  6924  001E2E  2A05               	incf	??_digitalWrite^0,f,c
  6925  001E30  EF1C  F00F         	goto	u2584
  6926  001E34                     u2585:
  6927  001E34  90D8               	bcf	status,0,c
  6928  001E36  3606               	rlcf	(??_digitalWrite+1)^0,f,c
  6929  001E38                     u2584:
  6930  001E38  2E05               	decfsz	??_digitalWrite^0,f,c
  6931  001E3A  EF1A  F00F         	goto	u2585
  6932  001E3E  5006               	movf	(??_digitalWrite+1)^0,w,c
  6933  001E40  1280               	iorwf	128,f,c	;volatile
  6934  001E42  EF22  F010         	goto	l256
  6935  001E46                     l2805:
  6936  001E46  C001  F005         	movff	digitalWrite@pin,??_digitalWrite
  6937  001E4A  0E01               	movlw	1
  6938  001E4C  6E06               	movwf	(??_digitalWrite+1)^0,c
  6939  001E4E  2A05               	incf	??_digitalWrite^0,f,c
  6940  001E50  EF2C  F00F         	goto	u2594
  6941  001E54                     u2595:
  6942  001E54  90D8               	bcf	status,0,c
  6943  001E56  3606               	rlcf	(??_digitalWrite+1)^0,f,c
  6944  001E58                     u2594:
  6945  001E58  2E05               	decfsz	??_digitalWrite^0,f,c
  6946  001E5A  EF2A  F00F         	goto	u2595
  6947  001E5E  5006               	movf	(??_digitalWrite+1)^0,w,c
  6948  001E60  0AFF               	xorlw	255
  6949  001E62  1680               	andwf	128,f,c	;volatile
  6950  001E64  EF22  F010         	goto	l256
  6951  001E68                     l2807:
  6952  001E68  BE02               	btfsc	(digitalWrite@pin+1)^0,7,c
  6953  001E6A  EF42  F00F         	goto	u2600
  6954  001E6E  5002               	movf	(digitalWrite@pin+1)^0,w,c
  6955  001E70  E107               	bnz	u2601
  6956  001E72  0E10               	movlw	16
  6957  001E74  5C01               	subwf	digitalWrite@pin^0,w,c
  6958  001E76  B0D8               	btfsc	status,0,c
  6959  001E78  EF40  F00F         	goto	u2601
  6960  001E7C  EF42  F00F         	goto	u2600
  6961  001E80                     u2601:
  6962  001E80  EF70  F00F         	goto	l2815
  6963  001E84                     u2600:
  6964  001E84                     
  6965                           ;io.c: 20:         pin -=8;
  6966  001E84  0EF8               	movlw	248
  6967  001E86  2601               	addwf	digitalWrite@pin^0,f,c
  6968  001E88  0EFF               	movlw	255
  6969  001E8A  2202               	addwfc	(digitalWrite@pin+1)^0,f,c
  6970                           
  6971                           ;io.c: 21:         if (value){ ((PORTB) |= (1<<(pin)));}
  6972  001E8C  5003               	movf	digitalWrite@value^0,w,c
  6973  001E8E  1004               	iorwf	(digitalWrite@value+1)^0,w,c
  6974  001E90  B4D8               	btfsc	status,2,c
  6975  001E92  EF4D  F00F         	goto	u2611
  6976  001E96  EF4F  F00F         	goto	u2610
  6977  001E9A                     u2611:
  6978  001E9A  EF5F  F00F         	goto	l2813
  6979  001E9E                     u2610:
  6980  001E9E  C001  F005         	movff	digitalWrite@pin,??_digitalWrite
  6981  001EA2  0E01               	movlw	1
  6982  001EA4  6E06               	movwf	(??_digitalWrite+1)^0,c
  6983  001EA6  2A05               	incf	??_digitalWrite^0,f,c
  6984  001EA8  EF58  F00F         	goto	u2624
  6985  001EAC                     u2625:
  6986  001EAC  90D8               	bcf	status,0,c
  6987  001EAE  3606               	rlcf	(??_digitalWrite+1)^0,f,c
  6988  001EB0                     u2624:
  6989  001EB0  2E05               	decfsz	??_digitalWrite^0,f,c
  6990  001EB2  EF56  F00F         	goto	u2625
  6991  001EB6  5006               	movf	(??_digitalWrite+1)^0,w,c
  6992  001EB8  1281               	iorwf	129,f,c	;volatile
  6993  001EBA  EF22  F010         	goto	l256
  6994  001EBE                     l2813:
  6995  001EBE  C001  F005         	movff	digitalWrite@pin,??_digitalWrite
  6996  001EC2  0E01               	movlw	1
  6997  001EC4  6E06               	movwf	(??_digitalWrite+1)^0,c
  6998  001EC6  2A05               	incf	??_digitalWrite^0,f,c
  6999  001EC8  EF68  F00F         	goto	u2634
  7000  001ECC                     u2635:
  7001  001ECC  90D8               	bcf	status,0,c
  7002  001ECE  3606               	rlcf	(??_digitalWrite+1)^0,f,c
  7003  001ED0                     u2634:
  7004  001ED0  2E05               	decfsz	??_digitalWrite^0,f,c
  7005  001ED2  EF66  F00F         	goto	u2635
  7006  001ED6  5006               	movf	(??_digitalWrite+1)^0,w,c
  7007  001ED8  0AFF               	xorlw	255
  7008  001EDA  1681               	andwf	129,f,c	;volatile
  7009  001EDC  EF22  F010         	goto	l256
  7010  001EE0                     l2815:
  7011  001EE0  BE02               	btfsc	(digitalWrite@pin+1)^0,7,c
  7012  001EE2  EF7E  F00F         	goto	u2640
  7013  001EE6  5002               	movf	(digitalWrite@pin+1)^0,w,c
  7014  001EE8  E107               	bnz	u2641
  7015  001EEA  0E18               	movlw	24
  7016  001EEC  5C01               	subwf	digitalWrite@pin^0,w,c
  7017  001EEE  B0D8               	btfsc	status,0,c
  7018  001EF0  EF7C  F00F         	goto	u2641
  7019  001EF4  EF7E  F00F         	goto	u2640
  7020  001EF8                     u2641:
  7021  001EF8  EFAC  F00F         	goto	l2823
  7022  001EFC                     u2640:
  7023  001EFC                     
  7024                           ;io.c: 24:         pin -=16;
  7025  001EFC  0EF0               	movlw	240
  7026  001EFE  2601               	addwf	digitalWrite@pin^0,f,c
  7027  001F00  0EFF               	movlw	255
  7028  001F02  2202               	addwfc	(digitalWrite@pin+1)^0,f,c
  7029                           
  7030                           ;io.c: 25:         if (value){ ((PORTC) |= (1<<(pin)));}
  7031  001F04  5003               	movf	digitalWrite@value^0,w,c
  7032  001F06  1004               	iorwf	(digitalWrite@value+1)^0,w,c
  7033  001F08  B4D8               	btfsc	status,2,c
  7034  001F0A  EF89  F00F         	goto	u2651
  7035  001F0E  EF8B  F00F         	goto	u2650
  7036  001F12                     u2651:
  7037  001F12  EF9B  F00F         	goto	l2821
  7038  001F16                     u2650:
  7039  001F16  C001  F005         	movff	digitalWrite@pin,??_digitalWrite
  7040  001F1A  0E01               	movlw	1
  7041  001F1C  6E06               	movwf	(??_digitalWrite+1)^0,c
  7042  001F1E  2A05               	incf	??_digitalWrite^0,f,c
  7043  001F20  EF94  F00F         	goto	u2664
  7044  001F24                     u2665:
  7045  001F24  90D8               	bcf	status,0,c
  7046  001F26  3606               	rlcf	(??_digitalWrite+1)^0,f,c
  7047  001F28                     u2664:
  7048  001F28  2E05               	decfsz	??_digitalWrite^0,f,c
  7049  001F2A  EF92  F00F         	goto	u2665
  7050  001F2E  5006               	movf	(??_digitalWrite+1)^0,w,c
  7051  001F30  1282               	iorwf	130,f,c	;volatile
  7052  001F32  EF22  F010         	goto	l256
  7053  001F36                     l2821:
  7054  001F36  C001  F005         	movff	digitalWrite@pin,??_digitalWrite
  7055  001F3A  0E01               	movlw	1
  7056  001F3C  6E06               	movwf	(??_digitalWrite+1)^0,c
  7057  001F3E  2A05               	incf	??_digitalWrite^0,f,c
  7058  001F40  EFA4  F00F         	goto	u2674
  7059  001F44                     u2675:
  7060  001F44  90D8               	bcf	status,0,c
  7061  001F46  3606               	rlcf	(??_digitalWrite+1)^0,f,c
  7062  001F48                     u2674:
  7063  001F48  2E05               	decfsz	??_digitalWrite^0,f,c
  7064  001F4A  EFA2  F00F         	goto	u2675
  7065  001F4E  5006               	movf	(??_digitalWrite+1)^0,w,c
  7066  001F50  0AFF               	xorlw	255
  7067  001F52  1682               	andwf	130,f,c	;volatile
  7068  001F54  EF22  F010         	goto	l256
  7069  001F58                     l2823:
  7070  001F58  BE02               	btfsc	(digitalWrite@pin+1)^0,7,c
  7071  001F5A  EFBA  F00F         	goto	u2680
  7072  001F5E  5002               	movf	(digitalWrite@pin+1)^0,w,c
  7073  001F60  E107               	bnz	u2681
  7074  001F62  0E20               	movlw	32
  7075  001F64  5C01               	subwf	digitalWrite@pin^0,w,c
  7076  001F66  B0D8               	btfsc	status,0,c
  7077  001F68  EFB8  F00F         	goto	u2681
  7078  001F6C  EFBA  F00F         	goto	u2680
  7079  001F70                     u2681:
  7080  001F70  EFE8  F00F         	goto	l2831
  7081  001F74                     u2680:
  7082  001F74                     
  7083                           ;io.c: 28:         pin -=24;
  7084  001F74  0EE8               	movlw	232
  7085  001F76  2601               	addwf	digitalWrite@pin^0,f,c
  7086  001F78  0EFF               	movlw	255
  7087  001F7A  2202               	addwfc	(digitalWrite@pin+1)^0,f,c
  7088                           
  7089                           ;io.c: 29:         if (value){ ((PORTD) |= (1<<(pin)));}
  7090  001F7C  5003               	movf	digitalWrite@value^0,w,c
  7091  001F7E  1004               	iorwf	(digitalWrite@value+1)^0,w,c
  7092  001F80  B4D8               	btfsc	status,2,c
  7093  001F82  EFC5  F00F         	goto	u2691
  7094  001F86  EFC7  F00F         	goto	u2690
  7095  001F8A                     u2691:
  7096  001F8A  EFD7  F00F         	goto	l2829
  7097  001F8E                     u2690:
  7098  001F8E  C001  F005         	movff	digitalWrite@pin,??_digitalWrite
  7099  001F92  0E01               	movlw	1
  7100  001F94  6E06               	movwf	(??_digitalWrite+1)^0,c
  7101  001F96  2A05               	incf	??_digitalWrite^0,f,c
  7102  001F98  EFD0  F00F         	goto	u2704
  7103  001F9C                     u2705:
  7104  001F9C  90D8               	bcf	status,0,c
  7105  001F9E  3606               	rlcf	(??_digitalWrite+1)^0,f,c
  7106  001FA0                     u2704:
  7107  001FA0  2E05               	decfsz	??_digitalWrite^0,f,c
  7108  001FA2  EFCE  F00F         	goto	u2705
  7109  001FA6  5006               	movf	(??_digitalWrite+1)^0,w,c
  7110  001FA8  1283               	iorwf	131,f,c	;volatile
  7111  001FAA  EF22  F010         	goto	l256
  7112  001FAE                     l2829:
  7113  001FAE  C001  F005         	movff	digitalWrite@pin,??_digitalWrite
  7114  001FB2  0E01               	movlw	1
  7115  001FB4  6E06               	movwf	(??_digitalWrite+1)^0,c
  7116  001FB6  2A05               	incf	??_digitalWrite^0,f,c
  7117  001FB8  EFE0  F00F         	goto	u2714
  7118  001FBC                     u2715:
  7119  001FBC  90D8               	bcf	status,0,c
  7120  001FBE  3606               	rlcf	(??_digitalWrite+1)^0,f,c
  7121  001FC0                     u2714:
  7122  001FC0  2E05               	decfsz	??_digitalWrite^0,f,c
  7123  001FC2  EFDE  F00F         	goto	u2715
  7124  001FC6  5006               	movf	(??_digitalWrite+1)^0,w,c
  7125  001FC8  0AFF               	xorlw	255
  7126  001FCA  1683               	andwf	131,f,c	;volatile
  7127  001FCC  EF22  F010         	goto	l256
  7128  001FD0                     l2831:
  7129  001FD0  BE02               	btfsc	(digitalWrite@pin+1)^0,7,c
  7130  001FD2  EFF6  F00F         	goto	u2720
  7131  001FD6  5002               	movf	(digitalWrite@pin+1)^0,w,c
  7132  001FD8  E107               	bnz	u2721
  7133  001FDA  0E28               	movlw	40
  7134  001FDC  5C01               	subwf	digitalWrite@pin^0,w,c
  7135  001FDE  B0D8               	btfsc	status,0,c
  7136  001FE0  EFF4  F00F         	goto	u2721
  7137  001FE4  EFF6  F00F         	goto	u2720
  7138  001FE8                     u2721:
  7139  001FE8  EF22  F010         	goto	l256
  7140  001FEC                     u2720:
  7141  001FEC                     
  7142                           ;io.c: 32:         pin -=32;
  7143  001FEC  0EE0               	movlw	224
  7144  001FEE  2601               	addwf	digitalWrite@pin^0,f,c
  7145  001FF0  0EFF               	movlw	255
  7146  001FF2  2202               	addwfc	(digitalWrite@pin+1)^0,f,c
  7147                           
  7148                           ;io.c: 33:         if (value){ ((PORTE) |= (1<<(pin)));}
  7149  001FF4  5003               	movf	digitalWrite@value^0,w,c
  7150  001FF6  1004               	iorwf	(digitalWrite@value+1)^0,w,c
  7151  001FF8  B4D8               	btfsc	status,2,c
  7152  001FFA  EF01  F010         	goto	u2731
  7153  001FFE  EF03  F010         	goto	u2730
  7154  002002                     u2731:
  7155  002002  EF13  F010         	goto	l2837
  7156  002006                     u2730:
  7157  002006  C001  F005         	movff	digitalWrite@pin,??_digitalWrite
  7158  00200A  0E01               	movlw	1
  7159  00200C  6E06               	movwf	(??_digitalWrite+1)^0,c
  7160  00200E  2A05               	incf	??_digitalWrite^0,f,c
  7161  002010  EF0C  F010         	goto	u2744
  7162  002014                     u2745:
  7163  002014  90D8               	bcf	status,0,c
  7164  002016  3606               	rlcf	(??_digitalWrite+1)^0,f,c
  7165  002018                     u2744:
  7166  002018  2E05               	decfsz	??_digitalWrite^0,f,c
  7167  00201A  EF0A  F010         	goto	u2745
  7168  00201E  5006               	movf	(??_digitalWrite+1)^0,w,c
  7169  002020  1284               	iorwf	132,f,c	;volatile
  7170  002022  EF22  F010         	goto	l256
  7171  002026                     l2837:
  7172  002026  C001  F005         	movff	digitalWrite@pin,??_digitalWrite
  7173  00202A  0E01               	movlw	1
  7174  00202C  6E06               	movwf	(??_digitalWrite+1)^0,c
  7175  00202E  2A05               	incf	??_digitalWrite^0,f,c
  7176  002030  EF1C  F010         	goto	u2754
  7177  002034                     u2755:
  7178  002034  90D8               	bcf	status,0,c
  7179  002036  3606               	rlcf	(??_digitalWrite+1)^0,f,c
  7180  002038                     u2754:
  7181  002038  2E05               	decfsz	??_digitalWrite^0,f,c
  7182  00203A  EF1A  F010         	goto	u2755
  7183  00203E  5006               	movf	(??_digitalWrite+1)^0,w,c
  7184  002040  0AFF               	xorlw	255
  7185  002042  1684               	andwf	132,f,c	;volatile
  7186  002044                     l256:
  7187  002044  0012               	return		;funcret
  7188  002046                     __end_of_digitalWrite:
  7189                           	callstack 0
  7190                           
  7191 ;; *************** function _digitalRead *****************
  7192 ;; Defined at:
  7193 ;;		line 39 in file "io.c"
  7194 ;; Parameters:    Size  Location     Type
  7195 ;;  pin             2    0[COMRAM] int 
  7196 ;; Auto vars:     Size  Location     Type
  7197 ;;		None
  7198 ;; Return value:  Size  Location     Type
  7199 ;;                  2    0[COMRAM] int 
  7200 ;; Registers used:
  7201 ;;		wreg, status,2, status,0
  7202 ;; Tracked objects:
  7203 ;;		On entry : 0/0
  7204 ;;		On exit  : 0/0
  7205 ;;		Unchanged: 0/0
  7206 ;; Data sizes:     COMRAM   BANK0   BANK1   BANK2   BANK3   BANK4   BANK5
  7207 ;;      Params:         2       0       0       0       0       0       0
  7208 ;;      Locals:         0       0       0       0       0       0       0
  7209 ;;      Temps:          3       0       0       0       0       0       0
  7210 ;;      Totals:         5       0       0       0       0       0       0
  7211 ;;Total ram usage:        5 bytes
  7212 ;; Hardware stack levels used: 1
  7213 ;; This function calls:
  7214 ;;		Nothing
  7215 ;; This function is called by:
  7216 ;;		_kpDebounce
  7217 ;; This function uses a non-reentrant model
  7218 ;;
  7219                           
  7220                           	psect	text44
  7221  00274E                     __ptext44:
  7222                           	callstack 0
  7223  00274E                     _digitalRead:
  7224                           	callstack 29
  7225  00274E                     
  7226                           ;io.c: 40:     if(pin <8){
  7227  00274E  BE02               	btfsc	(digitalRead@pin+1)^0,7,c
  7228  002750  EFB5  F013         	goto	u2770
  7229  002754  5002               	movf	(digitalRead@pin+1)^0,w,c
  7230  002756  E107               	bnz	u2771
  7231  002758  0E08               	movlw	8
  7232  00275A  5C01               	subwf	digitalRead@pin^0,w,c
  7233  00275C  B0D8               	btfsc	status,0,c
  7234  00275E  EFB3  F013         	goto	u2771
  7235  002762  EFB5  F013         	goto	u2770
  7236  002766                     u2771:
  7237  002766  EFC9  F013         	goto	l2881
  7238  00276A                     u2770:
  7239  00276A                     
  7240                           ;io.c: 41:         return ((PORTA) & (1<<(pin)));
  7241  00276A  C001  F003         	movff	digitalRead@pin,??_digitalRead
  7242  00276E  0E01               	movlw	1
  7243  002770  6E04               	movwf	(??_digitalRead+1)^0,c
  7244  002772  2A03               	incf	??_digitalRead^0,f,c
  7245  002774  EFBE  F013         	goto	u2784
  7246  002778                     u2785:
  7247  002778  90D8               	bcf	status,0,c
  7248  00277A  3604               	rlcf	(??_digitalRead+1)^0,f,c
  7249  00277C                     u2784:
  7250  00277C  2E03               	decfsz	??_digitalRead^0,f,c
  7251  00277E  EFBC  F013         	goto	u2785
  7252  002782  5004               	movf	(??_digitalRead+1)^0,w,c
  7253  002784  1480               	andwf	128,w,c	;volatile
  7254  002786  6E05               	movwf	(??_digitalRead+2)^0,c
  7255  002788  5005               	movf	(??_digitalRead+2)^0,w,c
  7256  00278A  6E01               	movwf	?_digitalRead^0,c
  7257  00278C  6A02               	clrf	(?_digitalRead+1)^0,c
  7258  00278E  EF5B  F014         	goto	l260
  7259  002792                     l2881:
  7260  002792  BE02               	btfsc	(digitalRead@pin+1)^0,7,c
  7261  002794  EFD7  F013         	goto	u2790
  7262  002798  5002               	movf	(digitalRead@pin+1)^0,w,c
  7263  00279A  E107               	bnz	u2791
  7264  00279C  0E10               	movlw	16
  7265  00279E  5C01               	subwf	digitalRead@pin^0,w,c
  7266  0027A0  B0D8               	btfsc	status,0,c
  7267  0027A2  EFD5  F013         	goto	u2791
  7268  0027A6  EFD7  F013         	goto	u2790
  7269  0027AA                     u2791:
  7270  0027AA  EFED  F013         	goto	l2889
  7271  0027AE                     u2790:
  7272  0027AE                     
  7273                           ;io.c: 43:         return ((PORTB) & (1<<(pin-8)));
  7274  0027AE  C001  F003         	movff	digitalRead@pin,??_digitalRead
  7275  0027B2  0EF8               	movlw	-8
  7276  0027B4  2603               	addwf	??_digitalRead^0,f,c
  7277  0027B6  0E01               	movlw	1
  7278  0027B8  6E04               	movwf	(??_digitalRead+1)^0,c
  7279  0027BA  2A03               	incf	??_digitalRead^0,f,c
  7280  0027BC  EFE2  F013         	goto	u2804
  7281  0027C0                     u2805:
  7282  0027C0  90D8               	bcf	status,0,c
  7283  0027C2  3604               	rlcf	(??_digitalRead+1)^0,f,c
  7284  0027C4                     u2804:
  7285  0027C4  2E03               	decfsz	??_digitalRead^0,f,c
  7286  0027C6  EFE0  F013         	goto	u2805
  7287  0027CA  5004               	movf	(??_digitalRead+1)^0,w,c
  7288  0027CC  1481               	andwf	129,w,c	;volatile
  7289  0027CE  6E05               	movwf	(??_digitalRead+2)^0,c
  7290  0027D0  5005               	movf	(??_digitalRead+2)^0,w,c
  7291  0027D2  6E01               	movwf	?_digitalRead^0,c
  7292  0027D4  6A02               	clrf	(?_digitalRead+1)^0,c
  7293  0027D6  EF5B  F014         	goto	l260
  7294  0027DA                     l2889:
  7295  0027DA  BE02               	btfsc	(digitalRead@pin+1)^0,7,c
  7296  0027DC  EFFB  F013         	goto	u2810
  7297  0027E0  5002               	movf	(digitalRead@pin+1)^0,w,c
  7298  0027E2  E107               	bnz	u2811
  7299  0027E4  0E18               	movlw	24
  7300  0027E6  5C01               	subwf	digitalRead@pin^0,w,c
  7301  0027E8  B0D8               	btfsc	status,0,c
  7302  0027EA  EFF9  F013         	goto	u2811
  7303  0027EE  EFFB  F013         	goto	u2810
  7304  0027F2                     u2811:
  7305  0027F2  EF11  F014         	goto	l2897
  7306  0027F6                     u2810:
  7307  0027F6                     
  7308                           ;io.c: 45:         return ((PORTC) & (1<<(pin-16)));
  7309  0027F6  C001  F003         	movff	digitalRead@pin,??_digitalRead
  7310  0027FA  0EF0               	movlw	-16
  7311  0027FC  2603               	addwf	??_digitalRead^0,f,c
  7312  0027FE  0E01               	movlw	1
  7313  002800  6E04               	movwf	(??_digitalRead+1)^0,c
  7314  002802  2A03               	incf	??_digitalRead^0,f,c
  7315  002804  EF06  F014         	goto	u2824
  7316  002808                     u2825:
  7317  002808  90D8               	bcf	status,0,c
  7318  00280A  3604               	rlcf	(??_digitalRead+1)^0,f,c
  7319  00280C                     u2824:
  7320  00280C  2E03               	decfsz	??_digitalRead^0,f,c
  7321  00280E  EF04  F014         	goto	u2825
  7322  002812  5004               	movf	(??_digitalRead+1)^0,w,c
  7323  002814  1482               	andwf	130,w,c	;volatile
  7324  002816  6E05               	movwf	(??_digitalRead+2)^0,c
  7325  002818  5005               	movf	(??_digitalRead+2)^0,w,c
  7326  00281A  6E01               	movwf	?_digitalRead^0,c
  7327  00281C  6A02               	clrf	(?_digitalRead+1)^0,c
  7328  00281E  EF5B  F014         	goto	l260
  7329  002822                     l2897:
  7330  002822  BE02               	btfsc	(digitalRead@pin+1)^0,7,c
  7331  002824  EF1F  F014         	goto	u2830
  7332  002828  5002               	movf	(digitalRead@pin+1)^0,w,c
  7333  00282A  E107               	bnz	u2831
  7334  00282C  0E20               	movlw	32
  7335  00282E  5C01               	subwf	digitalRead@pin^0,w,c
  7336  002830  B0D8               	btfsc	status,0,c
  7337  002832  EF1D  F014         	goto	u2831
  7338  002836  EF1F  F014         	goto	u2830
  7339  00283A                     u2831:
  7340  00283A  EF35  F014         	goto	l2905
  7341  00283E                     u2830:
  7342  00283E                     
  7343                           ;io.c: 47:         return ((PORTD) & (1<<(pin-24)));
  7344  00283E  C001  F003         	movff	digitalRead@pin,??_digitalRead
  7345  002842  0EE8               	movlw	-24
  7346  002844  2603               	addwf	??_digitalRead^0,f,c
  7347  002846  0E01               	movlw	1
  7348  002848  6E04               	movwf	(??_digitalRead+1)^0,c
  7349  00284A  2A03               	incf	??_digitalRead^0,f,c
  7350  00284C  EF2A  F014         	goto	u2844
  7351  002850                     u2845:
  7352  002850  90D8               	bcf	status,0,c
  7353  002852  3604               	rlcf	(??_digitalRead+1)^0,f,c
  7354  002854                     u2844:
  7355  002854  2E03               	decfsz	??_digitalRead^0,f,c
  7356  002856  EF28  F014         	goto	u2845
  7357  00285A  5004               	movf	(??_digitalRead+1)^0,w,c
  7358  00285C  1483               	andwf	131,w,c	;volatile
  7359  00285E  6E05               	movwf	(??_digitalRead+2)^0,c
  7360  002860  5005               	movf	(??_digitalRead+2)^0,w,c
  7361  002862  6E01               	movwf	?_digitalRead^0,c
  7362  002864  6A02               	clrf	(?_digitalRead+1)^0,c
  7363  002866  EF5B  F014         	goto	l260
  7364  00286A                     l2905:
  7365  00286A  BE02               	btfsc	(digitalRead@pin+1)^0,7,c
  7366  00286C  EF43  F014         	goto	u2850
  7367  002870  5002               	movf	(digitalRead@pin+1)^0,w,c
  7368  002872  E107               	bnz	u2851
  7369  002874  0E28               	movlw	40
  7370  002876  5C01               	subwf	digitalRead@pin^0,w,c
  7371  002878  B0D8               	btfsc	status,0,c
  7372  00287A  EF41  F014         	goto	u2851
  7373  00287E  EF43  F014         	goto	u2850
  7374  002882                     u2851:
  7375  002882  EF59  F014         	goto	l265
  7376  002886                     u2850:
  7377  002886                     
  7378                           ;io.c: 49:         return ((PORTE) & (1<<(pin-32)));
  7379  002886  C001  F003         	movff	digitalRead@pin,??_digitalRead
  7380  00288A  0EE0               	movlw	-32
  7381  00288C  2603               	addwf	??_digitalRead^0,f,c
  7382  00288E  0E01               	movlw	1
  7383  002890  6E04               	movwf	(??_digitalRead+1)^0,c
  7384  002892  2A03               	incf	??_digitalRead^0,f,c
  7385  002894  EF4E  F014         	goto	u2864
  7386  002898                     u2865:
  7387  002898  90D8               	bcf	status,0,c
  7388  00289A  3604               	rlcf	(??_digitalRead+1)^0,f,c
  7389  00289C                     u2864:
  7390  00289C  2E03               	decfsz	??_digitalRead^0,f,c
  7391  00289E  EF4C  F014         	goto	u2865
  7392  0028A2  5004               	movf	(??_digitalRead+1)^0,w,c
  7393  0028A4  1484               	andwf	132,w,c	;volatile
  7394  0028A6  6E05               	movwf	(??_digitalRead+2)^0,c
  7395  0028A8  5005               	movf	(??_digitalRead+2)^0,w,c
  7396  0028AA  6E01               	movwf	?_digitalRead^0,c
  7397  0028AC  6A02               	clrf	(?_digitalRead+1)^0,c
  7398  0028AE  EF5B  F014         	goto	l260
  7399  0028B2                     l265:
  7400  0028B2                     
  7401                           ;io.c: 51:     return -1;
  7402  0028B2  6801               	setf	?_digitalRead^0,c
  7403  0028B4  6802               	setf	(?_digitalRead+1)^0,c
  7404  0028B6                     l260:
  7405  0028B6  0012               	return		;funcret
  7406  0028B8                     __end_of_digitalRead:
  7407                           	callstack 0
  7408                           
  7409 ;; *************** function _adcRead *****************
  7410 ;; Defined at:
  7411 ;;		line 38 in file "adc.c"
  7412 ;; Parameters:    Size  Location     Type
  7413 ;;  channel         2    0[COMRAM] unsigned int 
  7414 ;; Auto vars:     Size  Location     Type
  7415 ;;  ADvalor         2    2[COMRAM] unsigned int 
  7416 ;; Return value:  Size  Location     Type
  7417 ;;                  2    0[COMRAM] int 
  7418 ;; Registers used:
  7419 ;;		wreg, status,2, status,0
  7420 ;; Tracked objects:
  7421 ;;		On entry : 0/0
  7422 ;;		On exit  : 0/0
  7423 ;;		Unchanged: 0/0
  7424 ;; Data sizes:     COMRAM   BANK0   BANK1   BANK2   BANK3   BANK4   BANK5
  7425 ;;      Params:         2       0       0       0       0       0       0
  7426 ;;      Locals:         2       0       0       0       0       0       0
  7427 ;;      Temps:          0       0       0       0       0       0       0
  7428 ;;      Totals:         4       0       0       0       0       0       0
  7429 ;;Total ram usage:        4 bytes
  7430 ;; Hardware stack levels used: 1
  7431 ;; This function calls:
  7432 ;;		Nothing
  7433 ;; This function is called by:
  7434 ;;		_comandos
  7435 ;; This function uses a non-reentrant model
  7436 ;;
  7437                           
  7438                           	psect	text45
  7439  003644                     __ptext45:
  7440                           	callstack 0
  7441  003644                     _adcRead:
  7442                           	callstack 28
  7443  003644                     
  7444                           ;adc.c: 39:     unsigned int ADvalor;;adc.c: 40:     ADCON0 &= 0b11000011;
  7445  003644  0EC3               	movlw	195
  7446  003646  16C2               	andwf	194,f,c	;volatile
  7447                           
  7448                           ;adc.c: 41:     if (channel < 3) {
  7449  003648  5002               	movf	(adcRead@channel+1)^0,w,c
  7450  00364A  E107               	bnz	u3521
  7451  00364C  0E03               	movlw	3
  7452  00364E  5C01               	subwf	adcRead@channel^0,w,c
  7453  003650  B0D8               	btfsc	status,0,c
  7454  003652  EF2D  F01B         	goto	u3521
  7455  003656  EF2F  F01B         	goto	u3520
  7456  00365A                     u3521:
  7457  00365A  EF33  F01B         	goto	l3267
  7458  00365E                     u3520:
  7459  00365E                     
  7460                           ;adc.c: 42:         ADCON0 |= channel << 2;
  7461  00365E  4401               	rlncf	adcRead@channel^0,w,c	;volatile
  7462  003660  46E8               	rlncf	wreg,f,c
  7463  003662  0BFC               	andlw	252
  7464  003664  12C2               	iorwf	194,f,c	;volatile
  7465  003666                     l3267:
  7466                           
  7467                           ;adc.c: 45:     ADCON0 |= 0b00000010;
  7468  003666  82C2               	bsf	194,1,c	;volatile
  7469  003668                     l455:
  7470  003668  B2C2               	btfsc	194,1,c	;volatile
  7471  00366A  EF39  F01B         	goto	u3531
  7472  00366E  EF3B  F01B         	goto	u3530
  7473  003672                     u3531:
  7474  003672  EF34  F01B         	goto	l455
  7475  003676                     u3530:
  7476  003676                     
  7477                           ;adc.c: 49:     ADvalor = ADRESH;
  7478  003676  CFC4 F003          	movff	4036,adcRead@ADvalor	;volatile
  7479  00367A  6A04               	clrf	(adcRead@ADvalor+1)^0,c
  7480  00367C                     
  7481                           ;adc.c: 50:     ADvalor <<= 8;
  7482  00367C  5003               	movf	adcRead@ADvalor^0,w,c
  7483  00367E  6E04               	movwf	(adcRead@ADvalor+1)^0,c
  7484  003680  6A03               	clrf	adcRead@ADvalor^0,c
  7485  003682                     
  7486                           ;adc.c: 51:     ADvalor += ADRESL;
  7487  003682  50C3               	movf	195,w,c	;volatile
  7488  003684  2603               	addwf	adcRead@ADvalor^0,f,c
  7489  003686  0E00               	movlw	0
  7490  003688  2204               	addwfc	(adcRead@ADvalor+1)^0,f,c
  7491  00368A                     
  7492                           ;adc.c: 52:     return ADvalor;
  7493  00368A  C003  F001         	movff	adcRead@ADvalor,?_adcRead
  7494  00368E  C004  F002         	movff	adcRead@ADvalor+1,?_adcRead+1
  7495  003692  0012               	return		;funcret
  7496  003694                     __end_of_adcRead:
  7497                           	callstack 0
  7498                           
  7499 ;; *************** function ___xxtofl *****************
  7500 ;; Defined at:
  7501 ;;		line 10 in file "C:\Program Files\Microchip\xc8\v2.32\pic\sources\c99\common\xxtofl.c"
  7502 ;; Parameters:    Size  Location     Type
  7503 ;;  sign            1    wreg     unsigned char 
  7504 ;;  val             4    0[COMRAM] long 
  7505 ;; Auto vars:     Size  Location     Type
  7506 ;;  sign            1    8[COMRAM] unsigned char 
  7507 ;;  arg             4   10[COMRAM] unsigned long 
  7508 ;;  exp             1    9[COMRAM] unsigned char 
  7509 ;; Return value:  Size  Location     Type
  7510 ;;                  4    0[COMRAM] unsigned char 
  7511 ;; Registers used:
  7512 ;;		wreg, status,2, status,0
  7513 ;; Tracked objects:
  7514 ;;		On entry : 0/0
  7515 ;;		On exit  : 0/0
  7516 ;;		Unchanged: 0/0
  7517 ;; Data sizes:     COMRAM   BANK0   BANK1   BANK2   BANK3   BANK4   BANK5
  7518 ;;      Params:         4       0       0       0       0       0       0
  7519 ;;      Locals:         6       0       0       0       0       0       0
  7520 ;;      Temps:          4       0       0       0       0       0       0
  7521 ;;      Totals:        14       0       0       0       0       0       0
  7522 ;;Total ram usage:       14 bytes
  7523 ;; Hardware stack levels used: 1
  7524 ;; This function calls:
  7525 ;;		Nothing
  7526 ;; This function is called by:
  7527 ;;		_comandos
  7528 ;;		_infoIndividual
  7529 ;;		_ssdHeat
  7530 ;; This function uses a non-reentrant model
  7531 ;;
  7532                           
  7533                           	psect	text46
  7534  002294                     __ptext46:
  7535                           	callstack 0
  7536  002294                     ___xxtofl:
  7537                           	callstack 29
  7538                           
  7539                           ;incstack = 0
  7540                           ;___xxtofl@sign stored from wreg
  7541  002294  6E09               	movwf	___xxtofl@sign^0,c
  7542  002296  5009               	movf	___xxtofl@sign^0,w,c
  7543  002298  B4D8               	btfsc	status,2,c
  7544  00229A  EF51  F011         	goto	u4321
  7545  00229E  EF53  F011         	goto	u4320
  7546  0022A2                     u4321:
  7547  0022A2  EF75  F011         	goto	l1175
  7548  0022A6                     u4320:
  7549  0022A6  BE04               	btfsc	(___xxtofl@val+3)^0,7,c
  7550  0022A8  EF5A  F011         	goto	u4330
  7551  0022AC  EF58  F011         	goto	u4331
  7552  0022B0                     u4331:
  7553  0022B0  EF75  F011         	goto	l1175
  7554  0022B4                     u4330:
  7555  0022B4  C001  F005         	movff	___xxtofl@val,??___xxtofl
  7556  0022B8  C002  F006         	movff	___xxtofl@val+1,??___xxtofl+1
  7557  0022BC  C003  F007         	movff	___xxtofl@val+2,??___xxtofl+2
  7558  0022C0  C004  F008         	movff	___xxtofl@val+3,??___xxtofl+3
  7559  0022C4  1E05               	comf	??___xxtofl^0,f,c
  7560  0022C6  1E06               	comf	(??___xxtofl+1)^0,f,c
  7561  0022C8  1E07               	comf	(??___xxtofl+2)^0,f,c
  7562  0022CA  1E08               	comf	(??___xxtofl+3)^0,f,c
  7563  0022CC  2A05               	incf	??___xxtofl^0,f,c
  7564  0022CE  0E00               	movlw	0
  7565  0022D0  2206               	addwfc	(??___xxtofl+1)^0,f,c
  7566  0022D2  2207               	addwfc	(??___xxtofl+2)^0,f,c
  7567  0022D4  2208               	addwfc	(??___xxtofl+3)^0,f,c
  7568  0022D6  C005  F00B         	movff	??___xxtofl,___xxtofl@arg
  7569  0022DA  C006  F00C         	movff	??___xxtofl+1,___xxtofl@arg+1
  7570  0022DE  C007  F00D         	movff	??___xxtofl+2,___xxtofl@arg+2
  7571  0022E2  C008  F00E         	movff	??___xxtofl+3,___xxtofl@arg+3
  7572  0022E6  EF7D  F011         	goto	l3713
  7573  0022EA                     l1175:
  7574  0022EA  C001  F00B         	movff	___xxtofl@val,___xxtofl@arg
  7575  0022EE  C002  F00C         	movff	___xxtofl@val+1,___xxtofl@arg+1
  7576  0022F2  C003  F00D         	movff	___xxtofl@val+2,___xxtofl@arg+2
  7577  0022F6  C004  F00E         	movff	___xxtofl@val+3,___xxtofl@arg+3
  7578  0022FA                     l3713:
  7579  0022FA  5001               	movf	___xxtofl@val^0,w,c
  7580  0022FC  1002               	iorwf	(___xxtofl@val+1)^0,w,c
  7581  0022FE  1003               	iorwf	(___xxtofl@val+2)^0,w,c
  7582  002300  1004               	iorwf	(___xxtofl@val+3)^0,w,c
  7583  002302  A4D8               	btfss	status,2,c
  7584  002304  EF86  F011         	goto	u4341
  7585  002308  EF88  F011         	goto	u4340
  7586  00230C                     u4341:
  7587  00230C  EF92  F011         	goto	l3719
  7588  002310                     u4340:
  7589  002310  0E00               	movlw	0
  7590  002312  6E01               	movwf	?___xxtofl^0,c
  7591  002314  0E00               	movlw	0
  7592  002316  6E02               	movwf	(?___xxtofl+1)^0,c
  7593  002318  0E00               	movlw	0
  7594  00231A  6E03               	movwf	(?___xxtofl+2)^0,c
  7595  00231C  0E00               	movlw	0
  7596  00231E  6E04               	movwf	(?___xxtofl+3)^0,c
  7597  002320  EF23  F012         	goto	l1178
  7598  002324                     l3719:
  7599  002324  0E96               	movlw	150
  7600  002326  6E0A               	movwf	___xxtofl@exp^0,c
  7601  002328  EF9C  F011         	goto	l3723
  7602  00232C                     l3721:
  7603  00232C  2A0A               	incf	___xxtofl@exp^0,f,c
  7604  00232E  90D8               	bcf	status,0,c
  7605  002330  320E               	rrcf	(___xxtofl@arg+3)^0,f,c
  7606  002332  320D               	rrcf	(___xxtofl@arg+2)^0,f,c
  7607  002334  320C               	rrcf	(___xxtofl@arg+1)^0,f,c
  7608  002336  320B               	rrcf	___xxtofl@arg^0,f,c
  7609  002338                     l3723:
  7610  002338  0E00               	movlw	0
  7611  00233A  140B               	andwf	___xxtofl@arg^0,w,c
  7612  00233C  6E05               	movwf	??___xxtofl^0,c
  7613  00233E  0E00               	movlw	0
  7614  002340  140C               	andwf	(___xxtofl@arg+1)^0,w,c
  7615  002342  6E06               	movwf	(??___xxtofl+1)^0,c
  7616  002344  0E00               	movlw	0
  7617  002346  140D               	andwf	(___xxtofl@arg+2)^0,w,c
  7618  002348  6E07               	movwf	(??___xxtofl+2)^0,c
  7619  00234A  0EFE               	movlw	254
  7620  00234C  140E               	andwf	(___xxtofl@arg+3)^0,w,c
  7621  00234E  6E08               	movwf	(??___xxtofl+3)^0,c
  7622  002350  5005               	movf	??___xxtofl^0,w,c
  7623  002352  1006               	iorwf	(??___xxtofl+1)^0,w,c
  7624  002354  1007               	iorwf	(??___xxtofl+2)^0,w,c
  7625  002356  1008               	iorwf	(??___xxtofl+3)^0,w,c
  7626  002358  A4D8               	btfss	status,2,c
  7627  00235A  EFB1  F011         	goto	u4351
  7628  00235E  EFB3  F011         	goto	u4350
  7629  002362                     u4351:
  7630  002362  EF96  F011         	goto	l3721
  7631  002366                     u4350:
  7632  002366  EFC1  F011         	goto	l1182
  7633  00236A                     l3725:
  7634  00236A  2A0A               	incf	___xxtofl@exp^0,f,c
  7635  00236C  0E01               	movlw	1
  7636  00236E  260B               	addwf	___xxtofl@arg^0,f,c
  7637  002370  0E00               	movlw	0
  7638  002372  220C               	addwfc	(___xxtofl@arg+1)^0,f,c
  7639  002374  220D               	addwfc	(___xxtofl@arg+2)^0,f,c
  7640  002376  220E               	addwfc	(___xxtofl@arg+3)^0,f,c
  7641  002378  90D8               	bcf	status,0,c
  7642  00237A  320E               	rrcf	(___xxtofl@arg+3)^0,f,c
  7643  00237C  320D               	rrcf	(___xxtofl@arg+2)^0,f,c
  7644  00237E  320C               	rrcf	(___xxtofl@arg+1)^0,f,c
  7645  002380  320B               	rrcf	___xxtofl@arg^0,f,c
  7646  002382                     l1182:
  7647  002382  0E00               	movlw	0
  7648  002384  140B               	andwf	___xxtofl@arg^0,w,c
  7649  002386  6E05               	movwf	??___xxtofl^0,c
  7650  002388  0E00               	movlw	0
  7651  00238A  140C               	andwf	(___xxtofl@arg+1)^0,w,c
  7652  00238C  6E06               	movwf	(??___xxtofl+1)^0,c
  7653  00238E  0E00               	movlw	0
  7654  002390  140D               	andwf	(___xxtofl@arg+2)^0,w,c
  7655  002392  6E07               	movwf	(??___xxtofl+2)^0,c
  7656  002394  0EFF               	movlw	255
  7657  002396  140E               	andwf	(___xxtofl@arg+3)^0,w,c
  7658  002398  6E08               	movwf	(??___xxtofl+3)^0,c
  7659  00239A  5005               	movf	??___xxtofl^0,w,c
  7660  00239C  1006               	iorwf	(??___xxtofl+1)^0,w,c
  7661  00239E  1007               	iorwf	(??___xxtofl+2)^0,w,c
  7662  0023A0  1008               	iorwf	(??___xxtofl+3)^0,w,c
  7663  0023A2  A4D8               	btfss	status,2,c
  7664  0023A4  EFD6  F011         	goto	u4361
  7665  0023A8  EFD8  F011         	goto	u4360
  7666  0023AC                     u4361:
  7667  0023AC  EFB5  F011         	goto	l3725
  7668  0023B0                     u4360:
  7669  0023B0  EFE0  F011         	goto	l3733
  7670  0023B4                     l3731:
  7671  0023B4  060A               	decf	___xxtofl@exp^0,f,c
  7672  0023B6  90D8               	bcf	status,0,c
  7673  0023B8  360B               	rlcf	___xxtofl@arg^0,f,c
  7674  0023BA  360C               	rlcf	(___xxtofl@arg+1)^0,f,c
  7675  0023BC  360D               	rlcf	(___xxtofl@arg+2)^0,f,c
  7676  0023BE  360E               	rlcf	(___xxtofl@arg+3)^0,f,c
  7677  0023C0                     l3733:
  7678  0023C0  BE0D               	btfsc	(___xxtofl@arg+2)^0,7,c
  7679  0023C2  EFE5  F011         	goto	u4371
  7680  0023C6  EFE7  F011         	goto	u4370
  7681  0023CA                     u4371:
  7682  0023CA  EFEF  F011         	goto	l1189
  7683  0023CE                     u4370:
  7684  0023CE  0E02               	movlw	2
  7685  0023D0  600A               	cpfslt	___xxtofl@exp^0,c
  7686  0023D2  EFED  F011         	goto	u4381
  7687  0023D6  EFEF  F011         	goto	u4380
  7688  0023DA                     u4381:
  7689  0023DA  EFDA  F011         	goto	l3731
  7690  0023DE                     u4380:
  7691  0023DE                     l1189:
  7692  0023DE  B00A               	btfsc	___xxtofl@exp^0,0,c
  7693  0023E0  EFF4  F011         	goto	u4391
  7694  0023E4  EFF6  F011         	goto	u4390
  7695  0023E8                     u4391:
  7696  0023E8  EFF7  F011         	goto	l3739
  7697  0023EC                     u4390:
  7698  0023EC  9E0D               	bcf	(___xxtofl@arg+2)^0,7,c
  7699  0023EE                     l3739:
  7700  0023EE  90D8               	bcf	status,0,c
  7701  0023F0  320A               	rrcf	___xxtofl@exp^0,f,c
  7702  0023F2  C00A  F005         	movff	___xxtofl@exp,??___xxtofl
  7703  0023F6  6A06               	clrf	(??___xxtofl+1)^0,c
  7704  0023F8  6A07               	clrf	(??___xxtofl+2)^0,c
  7705  0023FA  6A08               	clrf	(??___xxtofl+3)^0,c
  7706  0023FC  C005  F008         	movff	??___xxtofl,??___xxtofl+3
  7707  002400  6A07               	clrf	(??___xxtofl+2)^0,c
  7708  002402  6A06               	clrf	(??___xxtofl+1)^0,c
  7709  002404  6A05               	clrf	??___xxtofl^0,c
  7710  002406  5005               	movf	??___xxtofl^0,w,c
  7711  002408  120B               	iorwf	___xxtofl@arg^0,f,c
  7712  00240A  5006               	movf	(??___xxtofl+1)^0,w,c
  7713  00240C  120C               	iorwf	(___xxtofl@arg+1)^0,f,c
  7714  00240E  5007               	movf	(??___xxtofl+2)^0,w,c
  7715  002410  120D               	iorwf	(___xxtofl@arg+2)^0,f,c
  7716  002412  5008               	movf	(??___xxtofl+3)^0,w,c
  7717  002414  120E               	iorwf	(___xxtofl@arg+3)^0,f,c
  7718  002416  5009               	movf	___xxtofl@sign^0,w,c
  7719  002418  B4D8               	btfsc	status,2,c
  7720  00241A  EF11  F012         	goto	u4401
  7721  00241E  EF13  F012         	goto	u4400
  7722  002422                     u4401:
  7723  002422  EF1B  F012         	goto	l3749
  7724  002426                     u4400:
  7725  002426  BE04               	btfsc	(___xxtofl@val+3)^0,7,c
  7726  002428  EF1A  F012         	goto	u4410
  7727  00242C  EF18  F012         	goto	u4411
  7728  002430                     u4411:
  7729  002430  EF1B  F012         	goto	l3749
  7730  002434                     u4410:
  7731  002434  8E0E               	bsf	(___xxtofl@arg+3)^0,7,c
  7732  002436                     l3749:
  7733  002436  C00B  F001         	movff	___xxtofl@arg,?___xxtofl
  7734  00243A  C00C  F002         	movff	___xxtofl@arg+1,?___xxtofl+1
  7735  00243E  C00D  F003         	movff	___xxtofl@arg+2,?___xxtofl+2
  7736  002442  C00E  F004         	movff	___xxtofl@arg+3,?___xxtofl+3
  7737  002446                     l1178:
  7738  002446  0012               	return		;funcret
  7739  002448                     __end_of___xxtofl:
  7740                           	callstack 0
  7741                           
  7742 ;; *************** function ___fltol *****************
  7743 ;; Defined at:
  7744 ;;		line 43 in file "C:\Program Files\Microchip\xc8\v2.32\pic\sources\c99\common\fltol.c"
  7745 ;; Parameters:    Size  Location     Type
  7746 ;;  f1              4   88[COMRAM] unsigned char 
  7747 ;; Auto vars:     Size  Location     Type
  7748 ;;  exp1            1   97[COMRAM] unsigned char 
  7749 ;;  sign1           1   96[COMRAM] unsigned char 
  7750 ;; Return value:  Size  Location     Type
  7751 ;;                  4   88[COMRAM] long 
  7752 ;; Registers used:
  7753 ;;		wreg, status,2, status,0
  7754 ;; Tracked objects:
  7755 ;;		On entry : 0/0
  7756 ;;		On exit  : 0/0
  7757 ;;		Unchanged: 0/0
  7758 ;; Data sizes:     COMRAM   BANK0   BANK1   BANK2   BANK3   BANK4   BANK5
  7759 ;;      Params:         4       0       0       0       0       0       0
  7760 ;;      Locals:         2       0       0       0       0       0       0
  7761 ;;      Temps:          4       0       0       0       0       0       0
  7762 ;;      Totals:        10       0       0       0       0       0       0
  7763 ;;Total ram usage:       10 bytes
  7764 ;; Hardware stack levels used: 1
  7765 ;; This function calls:
  7766 ;;		Nothing
  7767 ;; This function is called by:
  7768 ;;		_comandos
  7769 ;;		_ssdHeat
  7770 ;; This function uses a non-reentrant model
  7771 ;;
  7772                           
  7773                           	psect	text47
  7774  002B02                     __ptext47:
  7775                           	callstack 0
  7776  002B02                     ___fltol:
  7777                           	callstack 29
  7778  002B02  345B               	rlcf	(___fltol@f1+2)^0,w,c
  7779  002B04  345C               	rlcf	(___fltol@f1+3)^0,w,c
  7780  002B06  6E62               	movwf	___fltol@exp1^0,c
  7781  002B08  5062               	movf	___fltol@exp1^0,w,c
  7782  002B0A  A4D8               	btfss	status,2,c
  7783  002B0C  EF8A  F015         	goto	u4221
  7784  002B10  EF8C  F015         	goto	u4220
  7785  002B14                     u4221:
  7786  002B14  EF96  F015         	goto	l3647
  7787  002B18                     u4220:
  7788  002B18                     l3643:
  7789  002B18  0E00               	movlw	0
  7790  002B1A  6E59               	movwf	?___fltol^0,c
  7791  002B1C  0E00               	movlw	0
  7792  002B1E  6E5A               	movwf	(?___fltol+1)^0,c
  7793  002B20  0E00               	movlw	0
  7794  002B22  6E5B               	movwf	(?___fltol+2)^0,c
  7795  002B24  0E00               	movlw	0
  7796  002B26  6E5C               	movwf	(?___fltol+3)^0,c
  7797  002B28  EF03  F016         	goto	l817
  7798  002B2C                     l3647:
  7799  002B2C  C059  F05D         	movff	___fltol@f1,??___fltol
  7800  002B30  C05A  F05E         	movff	___fltol@f1+1,??___fltol+1
  7801  002B34  C05B  F05F         	movff	___fltol@f1+2,??___fltol+2
  7802  002B38  C05C  F060         	movff	___fltol@f1+3,??___fltol+3
  7803  002B3C  0E20               	movlw	32
  7804  002B3E  EFA6  F015         	goto	u4230
  7805  002B42                     u4235:
  7806  002B42  90D8               	bcf	status,0,c
  7807  002B44  3260               	rrcf	(??___fltol+3)^0,f,c
  7808  002B46  325F               	rrcf	(??___fltol+2)^0,f,c
  7809  002B48  325E               	rrcf	(??___fltol+1)^0,f,c
  7810  002B4A  325D               	rrcf	??___fltol^0,f,c
  7811  002B4C                     u4230:
  7812  002B4C  2EE8               	decfsz	wreg,f,c
  7813  002B4E  EFA1  F015         	goto	u4235
  7814  002B52  505D               	movf	??___fltol^0,w,c
  7815  002B54  6E61               	movwf	___fltol@sign1^0,c
  7816  002B56  8E5B               	bsf	(___fltol@f1+2)^0,7,c
  7817  002B58  0EFF               	movlw	255
  7818  002B5A  1659               	andwf	___fltol@f1^0,f,c
  7819  002B5C  0EFF               	movlw	255
  7820  002B5E  165A               	andwf	(___fltol@f1+1)^0,f,c
  7821  002B60  0EFF               	movlw	255
  7822  002B62  165B               	andwf	(___fltol@f1+2)^0,f,c
  7823  002B64  0E00               	movlw	0
  7824  002B66  165C               	andwf	(___fltol@f1+3)^0,f,c
  7825  002B68  0E96               	movlw	150
  7826  002B6A  5E62               	subwf	___fltol@exp1^0,f,c
  7827  002B6C  BE62               	btfsc	___fltol@exp1^0,7,c
  7828  002B6E  EFBD  F015         	goto	u4240
  7829  002B72  EFBB  F015         	goto	u4241
  7830  002B76                     u4241:
  7831  002B76  EFD3  F015         	goto	l3667
  7832  002B7A                     u4240:
  7833  002B7A  5062               	movf	___fltol@exp1^0,w,c
  7834  002B7C  0A80               	xorlw	128
  7835  002B7E  0F97               	addlw	151
  7836  002B80  B0D8               	btfsc	status,0,c
  7837  002B82  EFC5  F015         	goto	u4251
  7838  002B86  EFC7  F015         	goto	u4250
  7839  002B8A                     u4251:
  7840  002B8A  EFC9  F015         	goto	l3663
  7841  002B8E                     u4250:
  7842  002B8E  EF8C  F015         	goto	l3643
  7843  002B92                     l3663:
  7844  002B92  90D8               	bcf	status,0,c
  7845  002B94  325C               	rrcf	(___fltol@f1+3)^0,f,c
  7846  002B96  325B               	rrcf	(___fltol@f1+2)^0,f,c
  7847  002B98  325A               	rrcf	(___fltol@f1+1)^0,f,c
  7848  002B9A  3259               	rrcf	___fltol@f1^0,f,c
  7849  002B9C  3E62               	incfsz	___fltol@exp1^0,f,c
  7850  002B9E  EFC9  F015         	goto	l3663
  7851  002BA2  EFEB  F015         	goto	l3677
  7852  002BA6                     l3667:
  7853  002BA6  0E1F               	movlw	31
  7854  002BA8  6462               	cpfsgt	___fltol@exp1^0,c
  7855  002BAA  EFD9  F015         	goto	u4261
  7856  002BAE  EFDB  F015         	goto	u4260
  7857  002BB2                     u4261:
  7858  002BB2  EFE3  F015         	goto	l3675
  7859  002BB6                     u4260:
  7860  002BB6  EF8C  F015         	goto	l3643
  7861  002BBA                     l3673:
  7862  002BBA  90D8               	bcf	status,0,c
  7863  002BBC  3659               	rlcf	___fltol@f1^0,f,c
  7864  002BBE  365A               	rlcf	(___fltol@f1+1)^0,f,c
  7865  002BC0  365B               	rlcf	(___fltol@f1+2)^0,f,c
  7866  002BC2  365C               	rlcf	(___fltol@f1+3)^0,f,c
  7867  002BC4  0662               	decf	___fltol@exp1^0,f,c
  7868  002BC6                     l3675:
  7869  002BC6  5062               	movf	___fltol@exp1^0,w,c
  7870  002BC8  A4D8               	btfss	status,2,c
  7871  002BCA  EFE9  F015         	goto	u4271
  7872  002BCE  EFEB  F015         	goto	u4270
  7873  002BD2                     u4271:
  7874  002BD2  EFDD  F015         	goto	l3673
  7875  002BD6                     u4270:
  7876  002BD6                     l3677:
  7877  002BD6  5061               	movf	___fltol@sign1^0,w,c
  7878  002BD8  B4D8               	btfsc	status,2,c
  7879  002BDA  EFF1  F015         	goto	u4281
  7880  002BDE  EFF3  F015         	goto	u4280
  7881  002BE2                     u4281:
  7882  002BE2  EFFB  F015         	goto	l3681
  7883  002BE6                     u4280:
  7884  002BE6  1E5C               	comf	(___fltol@f1+3)^0,f,c
  7885  002BE8  1E5B               	comf	(___fltol@f1+2)^0,f,c
  7886  002BEA  1E5A               	comf	(___fltol@f1+1)^0,f,c
  7887  002BEC  6C59               	negf	___fltol@f1^0,c
  7888  002BEE  0E00               	movlw	0
  7889  002BF0  225A               	addwfc	(___fltol@f1+1)^0,f,c
  7890  002BF2  225B               	addwfc	(___fltol@f1+2)^0,f,c
  7891  002BF4  225C               	addwfc	(___fltol@f1+3)^0,f,c
  7892  002BF6                     l3681:
  7893  002BF6  C059  F059         	movff	___fltol@f1,?___fltol
  7894  002BFA  C05A  F05A         	movff	___fltol@f1+1,?___fltol+1
  7895  002BFE  C05B  F05B         	movff	___fltol@f1+2,?___fltol+2
  7896  002C02  C05C  F05C         	movff	___fltol@f1+3,?___fltol+3
  7897  002C06                     l817:
  7898  002C06  0012               	return		;funcret
  7899  002C08                     __end_of___fltol:
  7900                           	callstack 0
  7901                           
  7902 ;; *************** function ___flsub *****************
  7903 ;; Defined at:
  7904 ;;		line 245 in file "C:\Program Files\Microchip\xc8\v2.32\pic\sources\c99\common\sprcadd.c"
  7905 ;; Parameters:    Size  Location     Type
  7906 ;;  b               4   80[COMRAM] long 
  7907 ;;  a               4   84[COMRAM] long 
  7908 ;; Auto vars:     Size  Location     Type
  7909 ;;		None
  7910 ;; Return value:  Size  Location     Type
  7911 ;;                  4   80[COMRAM] long 
  7912 ;; Registers used:
  7913 ;;		wreg, status,2, status,0, cstack
  7914 ;; Tracked objects:
  7915 ;;		On entry : 0/0
  7916 ;;		On exit  : 0/0
  7917 ;;		Unchanged: 0/0
  7918 ;; Data sizes:     COMRAM   BANK0   BANK1   BANK2   BANK3   BANK4   BANK5
  7919 ;;      Params:         8       0       0       0       0       0       0
  7920 ;;      Locals:         0       0       0       0       0       0       0
  7921 ;;      Temps:          0       0       0       0       0       0       0
  7922 ;;      Totals:         8       0       0       0       0       0       0
  7923 ;;Total ram usage:        8 bytes
  7924 ;; Hardware stack levels used: 1
  7925 ;; Hardware stack levels required when called: 1
  7926 ;; This function calls:
  7927 ;;		___fladd
  7928 ;; This function is called by:
  7929 ;;		_comandos
  7930 ;; This function uses a non-reentrant model
  7931 ;;
  7932                           
  7933                           	psect	text48
  7934  00372A                     __ptext48:
  7935                           	callstack 0
  7936  00372A                     ___flsub:
  7937                           	callstack 27
  7938  00372A  0E00               	movlw	0
  7939  00372C  1A55               	xorwf	___flsub@a^0,f,c
  7940  00372E  0E00               	movlw	0
  7941  003730  1A56               	xorwf	(___flsub@a+1)^0,f,c
  7942  003732  0E00               	movlw	0
  7943  003734  1A57               	xorwf	(___flsub@a+2)^0,f,c
  7944  003736  0E80               	movlw	128
  7945  003738  1A58               	xorwf	(___flsub@a+3)^0,f,c
  7946  00373A  C051  F028         	movff	___flsub@b,___fladd@b
  7947  00373E  C052  F029         	movff	___flsub@b+1,___fladd@b+1
  7948  003742  C053  F02A         	movff	___flsub@b+2,___fladd@b+2
  7949  003746  C054  F02B         	movff	___flsub@b+3,___fladd@b+3
  7950  00374A  C055  F02C         	movff	___flsub@a,___fladd@a
  7951  00374E  C056  F02D         	movff	___flsub@a+1,___fladd@a+1
  7952  003752  C057  F02E         	movff	___flsub@a+2,___fladd@a+2
  7953  003756  C058  F02F         	movff	___flsub@a+3,___fladd@a+3
  7954  00375A  ECE1  F005         	call	___fladd	;wreg free
  7955  00375E  C028  F051         	movff	?___fladd,?___flsub
  7956  003762  C029  F052         	movff	?___fladd+1,?___flsub+1
  7957  003766  C02A  F053         	movff	?___fladd+2,?___flsub+2
  7958  00376A  C02B  F054         	movff	?___fladd+3,?___flsub+3
  7959  00376E  0012               	return		;funcret
  7960  003770                     __end_of___flsub:
  7961                           	callstack 0
  7962                           
  7963 ;; *************** function ___fladd *****************
  7964 ;; Defined at:
  7965 ;;		line 10 in file "C:\Program Files\Microchip\xc8\v2.32\pic\sources\c99\common\sprcadd.c"
  7966 ;; Parameters:    Size  Location     Type
  7967 ;;  b               4   39[COMRAM] long 
  7968 ;;  a               4   43[COMRAM] long 
  7969 ;; Auto vars:     Size  Location     Type
  7970 ;;  grs             1   54[COMRAM] unsigned char 
  7971 ;;  bexp            1   53[COMRAM] unsigned char 
  7972 ;;  aexp            1   52[COMRAM] unsigned char 
  7973 ;;  signs           1   51[COMRAM] unsigned char 
  7974 ;; Return value:  Size  Location     Type
  7975 ;;                  4   39[COMRAM] unsigned char 
  7976 ;; Registers used:
  7977 ;;		wreg, status,2, status,0
  7978 ;; Tracked objects:
  7979 ;;		On entry : 0/0
  7980 ;;		On exit  : 0/0
  7981 ;;		Unchanged: 0/0
  7982 ;; Data sizes:     COMRAM   BANK0   BANK1   BANK2   BANK3   BANK4   BANK5
  7983 ;;      Params:         8       0       0       0       0       0       0
  7984 ;;      Locals:         4       0       0       0       0       0       0
  7985 ;;      Temps:          4       0       0       0       0       0       0
  7986 ;;      Totals:        16       0       0       0       0       0       0
  7987 ;;Total ram usage:       16 bytes
  7988 ;; Hardware stack levels used: 1
  7989 ;; This function calls:
  7990 ;;		Nothing
  7991 ;; This function is called by:
  7992 ;;		_comandos
  7993 ;;		_ssdHeat
  7994 ;;		___flsub
  7995 ;; This function uses a non-reentrant model
  7996 ;;
  7997                           
  7998                           	psect	text49
  7999  000BC2                     __ptext49:
  8000                           	callstack 0
  8001  000BC2                     ___fladd:
  8002                           	callstack 29
  8003  000BC2  502B               	movf	(___fladd@b+3)^0,w,c
  8004  000BC4  0B80               	andlw	128
  8005  000BC6  6E34               	movwf	___fladd@signs^0,c
  8006  000BC8  502B               	movf	(___fladd@b+3)^0,w,c
  8007  000BCA  242B               	addwf	(___fladd@b+3)^0,w,c
  8008  000BCC  6E36               	movwf	___fladd@bexp^0,c
  8009  000BCE  AE2A               	btfss	(___fladd@b+2)^0,7,c
  8010  000BD0  EFEC  F005         	goto	u2881
  8011  000BD4  EFEE  F005         	goto	u2880
  8012  000BD8                     u2881:
  8013  000BD8  EFEF  F005         	goto	l2923
  8014  000BDC                     u2880:
  8015  000BDC  8036               	bsf	___fladd@bexp^0,0,c
  8016  000BDE                     l2923:
  8017  000BDE  5036               	movf	___fladd@bexp^0,w,c
  8018  000BE0  B4D8               	btfsc	status,2,c
  8019  000BE2  EFF5  F005         	goto	u2891
  8020  000BE6  EFF7  F005         	goto	u2890
  8021  000BEA                     u2891:
  8022  000BEA  EF0C  F006         	goto	l2933
  8023  000BEE                     u2890:
  8024  000BEE  2836               	incf	___fladd@bexp^0,w,c
  8025  000BF0  A4D8               	btfss	status,2,c
  8026  000BF2  EFFD  F005         	goto	u2901
  8027  000BF6  EFFF  F005         	goto	u2900
  8028  000BFA                     u2901:
  8029  000BFA  EF07  F006         	goto	l2929
  8030  000BFE                     u2900:
  8031  000BFE  0E00               	movlw	0
  8032  000C00  6E28               	movwf	___fladd@b^0,c
  8033  000C02  0E00               	movlw	0
  8034  000C04  6E29               	movwf	(___fladd@b+1)^0,c
  8035  000C06  0E00               	movlw	0
  8036  000C08  6E2A               	movwf	(___fladd@b+2)^0,c
  8037  000C0A  0E00               	movlw	0
  8038  000C0C  6E2B               	movwf	(___fladd@b+3)^0,c
  8039  000C0E                     l2929:
  8040  000C0E  8E2A               	bsf	(___fladd@b+2)^0,7,c
  8041  000C10  0E00               	movlw	0
  8042  000C12  6E2B               	movwf	(___fladd@b+3)^0,c
  8043  000C14  EF14  F006         	goto	l2935
  8044  000C18                     l2933:
  8045  000C18  0E00               	movlw	0
  8046  000C1A  6E28               	movwf	___fladd@b^0,c
  8047  000C1C  0E00               	movlw	0
  8048  000C1E  6E29               	movwf	(___fladd@b+1)^0,c
  8049  000C20  0E00               	movlw	0
  8050  000C22  6E2A               	movwf	(___fladd@b+2)^0,c
  8051  000C24  0E00               	movlw	0
  8052  000C26  6E2B               	movwf	(___fladd@b+3)^0,c
  8053  000C28                     l2935:
  8054  000C28  502F               	movf	(___fladd@a+3)^0,w,c
  8055  000C2A  0B80               	andlw	128
  8056  000C2C  6E35               	movwf	___fladd@aexp^0,c
  8057  000C2E  5034               	movf	___fladd@signs^0,w,c
  8058  000C30  1835               	xorwf	___fladd@aexp^0,w,c
  8059  000C32  B4D8               	btfsc	status,2,c
  8060  000C34  EF1E  F006         	goto	u2911
  8061  000C38  EF20  F006         	goto	u2910
  8062  000C3C                     u2911:
  8063  000C3C  EF21  F006         	goto	l2941
  8064  000C40                     u2910:
  8065  000C40  8C34               	bsf	___fladd@signs^0,6,c
  8066  000C42                     l2941:
  8067  000C42  502F               	movf	(___fladd@a+3)^0,w,c
  8068  000C44  242F               	addwf	(___fladd@a+3)^0,w,c
  8069  000C46  6E35               	movwf	___fladd@aexp^0,c
  8070  000C48  AE2E               	btfss	(___fladd@a+2)^0,7,c
  8071  000C4A  EF29  F006         	goto	u2921
  8072  000C4E  EF2B  F006         	goto	u2920
  8073  000C52                     u2921:
  8074  000C52  EF2C  F006         	goto	l2947
  8075  000C56                     u2920:
  8076  000C56  8035               	bsf	___fladd@aexp^0,0,c
  8077  000C58                     l2947:
  8078  000C58  5035               	movf	___fladd@aexp^0,w,c
  8079  000C5A  B4D8               	btfsc	status,2,c
  8080  000C5C  EF32  F006         	goto	u2931
  8081  000C60  EF34  F006         	goto	u2930
  8082  000C64                     u2931:
  8083  000C64  EF49  F006         	goto	l2957
  8084  000C68                     u2930:
  8085  000C68  2835               	incf	___fladd@aexp^0,w,c
  8086  000C6A  A4D8               	btfss	status,2,c
  8087  000C6C  EF3A  F006         	goto	u2941
  8088  000C70  EF3C  F006         	goto	u2940
  8089  000C74                     u2941:
  8090  000C74  EF44  F006         	goto	l2953
  8091  000C78                     u2940:
  8092  000C78  0E00               	movlw	0
  8093  000C7A  6E2C               	movwf	___fladd@a^0,c
  8094  000C7C  0E00               	movlw	0
  8095  000C7E  6E2D               	movwf	(___fladd@a+1)^0,c
  8096  000C80  0E00               	movlw	0
  8097  000C82  6E2E               	movwf	(___fladd@a+2)^0,c
  8098  000C84  0E00               	movlw	0
  8099  000C86  6E2F               	movwf	(___fladd@a+3)^0,c
  8100  000C88                     l2953:
  8101  000C88  8E2E               	bsf	(___fladd@a+2)^0,7,c
  8102  000C8A  0E00               	movlw	0
  8103  000C8C  6E2F               	movwf	(___fladd@a+3)^0,c
  8104  000C8E  EF51  F006         	goto	l2959
  8105  000C92                     l2957:
  8106  000C92  0E00               	movlw	0
  8107  000C94  6E2C               	movwf	___fladd@a^0,c
  8108  000C96  0E00               	movlw	0
  8109  000C98  6E2D               	movwf	(___fladd@a+1)^0,c
  8110  000C9A  0E00               	movlw	0
  8111  000C9C  6E2E               	movwf	(___fladd@a+2)^0,c
  8112  000C9E  0E00               	movlw	0
  8113  000CA0  6E2F               	movwf	(___fladd@a+3)^0,c
  8114  000CA2                     l2959:
  8115  000CA2  5036               	movf	___fladd@bexp^0,w,c
  8116  000CA4  5C35               	subwf	___fladd@aexp^0,w,c
  8117  000CA6  B0D8               	btfsc	status,0,c
  8118  000CA8  EF58  F006         	goto	u2951
  8119  000CAC  EF5A  F006         	goto	u2950
  8120  000CB0                     u2951:
  8121  000CB0  EF81  F006         	goto	l2995
  8122  000CB4                     u2950:
  8123  000CB4  AC34               	btfss	___fladd@signs^0,6,c
  8124  000CB6  EF5F  F006         	goto	u2961
  8125  000CBA  EF61  F006         	goto	u2960
  8126  000CBE                     u2961:
  8127  000CBE  EF63  F006         	goto	l2965
  8128  000CC2                     u2960:
  8129  000CC2  0E80               	movlw	128
  8130  000CC4  1A34               	xorwf	___fladd@signs^0,f,c
  8131  000CC6                     l2965:
  8132  000CC6  C036  F037         	movff	___fladd@bexp,___fladd@grs
  8133  000CCA  C035  F036         	movff	___fladd@aexp,___fladd@bexp
  8134  000CCE  C037  F035         	movff	___fladd@grs,___fladd@aexp
  8135  000CD2  C028  F037         	movff	___fladd@b,___fladd@grs
  8136  000CD6  C02C  F028         	movff	___fladd@a,___fladd@b
  8137  000CDA  C037  F02C         	movff	___fladd@grs,___fladd@a
  8138  000CDE  C029  F037         	movff	___fladd@b+1,___fladd@grs
  8139  000CE2  C02D  F029         	movff	___fladd@a+1,___fladd@b+1
  8140  000CE6  C037  F02D         	movff	___fladd@grs,___fladd@a+1
  8141  000CEA  C02A  F037         	movff	___fladd@b+2,___fladd@grs
  8142  000CEE  C02E  F02A         	movff	___fladd@a+2,___fladd@b+2
  8143  000CF2  C037  F02E         	movff	___fladd@grs,___fladd@a+2
  8144  000CF6  C02B  F037         	movff	___fladd@b+3,___fladd@grs
  8145  000CFA  C02F  F02B         	movff	___fladd@a+3,___fladd@b+3
  8146  000CFE  C037  F02F         	movff	___fladd@grs,___fladd@a+3
  8147  000D02                     l2995:
  8148  000D02  0E00               	movlw	0
  8149  000D04  6E37               	movwf	___fladd@grs^0,c
  8150  000D06  5036               	movf	___fladd@bexp^0,w,c
  8151  000D08  C035  F030         	movff	___fladd@aexp,??___fladd
  8152  000D0C  6A31               	clrf	(??___fladd+1)^0,c
  8153  000D0E  5E30               	subwf	??___fladd^0,f,c
  8154  000D10  0E00               	movlw	0
  8155  000D12  5A31               	subwfb	(??___fladd+1)^0,f,c
  8156  000D14  BE31               	btfsc	(??___fladd+1)^0,7,c
  8157  000D16  EF96  F006         	goto	u2971
  8158  000D1A  5031               	movf	(??___fladd+1)^0,w,c
  8159  000D1C  E109               	bnz	u2970
  8160  000D1E  0E1A               	movlw	26
  8161  000D20  5C30               	subwf	??___fladd^0,w,c
  8162  000D22  A0D8               	btfss	status,0,c
  8163  000D24  EF96  F006         	goto	u2971
  8164  000D28  EF98  F006         	goto	u2970
  8165  000D2C                     u2971:
  8166  000D2C  EFCF  F006         	goto	l1049
  8167  000D30                     u2970:
  8168  000D30  5028               	movf	___fladd@b^0,w,c
  8169  000D32  1029               	iorwf	(___fladd@b+1)^0,w,c
  8170  000D34  102A               	iorwf	(___fladd@b+2)^0,w,c
  8171  000D36  102B               	iorwf	(___fladd@b+3)^0,w,c
  8172  000D38  A4D8               	btfss	status,2,c
  8173  000D3A  EFA1  F006         	goto	u2981
  8174  000D3E  EFA4  F006         	goto	u2980
  8175  000D42                     u2981:
  8176  000D42  0E01               	movlw	1
  8177  000D44  EFA5  F006         	goto	u2990
  8178  000D48                     u2980:
  8179  000D48  0E00               	movlw	0
  8180  000D4A                     u2990:
  8181  000D4A  6E37               	movwf	___fladd@grs^0,c
  8182  000D4C  0E00               	movlw	0
  8183  000D4E  6E28               	movwf	___fladd@b^0,c
  8184  000D50  0E00               	movlw	0
  8185  000D52  6E29               	movwf	(___fladd@b+1)^0,c
  8186  000D54  0E00               	movlw	0
  8187  000D56  6E2A               	movwf	(___fladd@b+2)^0,c
  8188  000D58  0E00               	movlw	0
  8189  000D5A  6E2B               	movwf	(___fladd@b+3)^0,c
  8190  000D5C  C035  F036         	movff	___fladd@aexp,___fladd@bexp
  8191  000D60  EFD8  F006         	goto	l1048
  8192  000D64                     l1050:
  8193  000D64  A037               	btfss	___fladd@grs^0,0,c
  8194  000D66  EFB7  F006         	goto	u3001
  8195  000D6A  EFB9  F006         	goto	u3000
  8196  000D6E                     u3001:
  8197  000D6E  EFBF  F006         	goto	l3007
  8198  000D72                     u3000:
  8199  000D72  90D8               	bcf	status,0,c
  8200  000D74  3037               	rrcf	___fladd@grs^0,w,c
  8201  000D76  0901               	iorlw	1
  8202  000D78  6E37               	movwf	___fladd@grs^0,c
  8203  000D7A  EFC1  F006         	goto	l3009
  8204  000D7E                     l3007:
  8205  000D7E  90D8               	bcf	status,0,c
  8206  000D80  3237               	rrcf	___fladd@grs^0,f,c
  8207  000D82                     l3009:
  8208  000D82  A028               	btfss	___fladd@b^0,0,c
  8209  000D84  EFC6  F006         	goto	u3011
  8210  000D88  EFC8  F006         	goto	u3010
  8211  000D8C                     u3011:
  8212  000D8C  EFC9  F006         	goto	l3013
  8213  000D90                     u3010:
  8214  000D90  8E37               	bsf	___fladd@grs^0,7,c
  8215  000D92                     l3013:
  8216  000D92  342B               	rlcf	(___fladd@b+3)^0,w,c
  8217  000D94  322B               	rrcf	(___fladd@b+3)^0,f,c
  8218  000D96  322A               	rrcf	(___fladd@b+2)^0,f,c
  8219  000D98  3229               	rrcf	(___fladd@b+1)^0,f,c
  8220  000D9A  3228               	rrcf	___fladd@b^0,f,c
  8221  000D9C  2A36               	incf	___fladd@bexp^0,f,c
  8222  000D9E                     l1049:
  8223  000D9E  5035               	movf	___fladd@aexp^0,w,c
  8224  000DA0  5C36               	subwf	___fladd@bexp^0,w,c
  8225  000DA2  A0D8               	btfss	status,0,c
  8226  000DA4  EFD6  F006         	goto	u3021
  8227  000DA8  EFD8  F006         	goto	u3020
  8228  000DAC                     u3021:
  8229  000DAC  EFB2  F006         	goto	l1050
  8230  000DB0                     u3020:
  8231  000DB0                     l1048:
  8232  000DB0  BC34               	btfsc	___fladd@signs^0,6,c
  8233  000DB2  EFDD  F006         	goto	u3031
  8234  000DB6  EFDF  F006         	goto	u3030
  8235  000DBA                     u3031:
  8236  000DBA  EF1F  F007         	goto	l3041
  8237  000DBE                     u3030:
  8238  000DBE  5036               	movf	___fladd@bexp^0,w,c
  8239  000DC0  A4D8               	btfss	status,2,c
  8240  000DC2  EFE5  F006         	goto	u3041
  8241  000DC6  EFE7  F006         	goto	u3040
  8242  000DCA                     u3041:
  8243  000DCA  EFF1  F006         	goto	l3023
  8244  000DCE                     u3040:
  8245  000DCE  0E00               	movlw	0
  8246  000DD0  6E28               	movwf	?___fladd^0,c
  8247  000DD2  0E00               	movlw	0
  8248  000DD4  6E29               	movwf	(?___fladd+1)^0,c
  8249  000DD6  0E00               	movlw	0
  8250  000DD8  6E2A               	movwf	(?___fladd+2)^0,c
  8251  000DDA  0E00               	movlw	0
  8252  000DDC  6E2B               	movwf	(?___fladd+3)^0,c
  8253  000DDE  EF40  F008         	goto	l1057
  8254  000DE2                     l3023:
  8255  000DE2  502C               	movf	___fladd@a^0,w,c
  8256  000DE4  2628               	addwf	___fladd@b^0,f,c
  8257  000DE6  502D               	movf	(___fladd@a+1)^0,w,c
  8258  000DE8  2229               	addwfc	(___fladd@b+1)^0,f,c
  8259  000DEA  502E               	movf	(___fladd@a+2)^0,w,c
  8260  000DEC  222A               	addwfc	(___fladd@b+2)^0,f,c
  8261  000DEE  502F               	movf	(___fladd@a+3)^0,w,c
  8262  000DF0  222B               	addwfc	(___fladd@b+3)^0,f,c
  8263  000DF2  A02B               	btfss	(___fladd@b+3)^0,0,c
  8264  000DF4  EFFE  F006         	goto	u3051
  8265  000DF8  EF00  F007         	goto	u3050
  8266  000DFC                     u3051:
  8267  000DFC  EFAC  F007         	goto	l3077
  8268  000E00                     u3050:
  8269  000E00  A037               	btfss	___fladd@grs^0,0,c
  8270  000E02  EF05  F007         	goto	u3061
  8271  000E06  EF07  F007         	goto	u3060
  8272  000E0A                     u3061:
  8273  000E0A  EF0D  F007         	goto	l3031
  8274  000E0E                     u3060:
  8275  000E0E  90D8               	bcf	status,0,c
  8276  000E10  3037               	rrcf	___fladd@grs^0,w,c
  8277  000E12  0901               	iorlw	1
  8278  000E14  6E37               	movwf	___fladd@grs^0,c
  8279  000E16  EF0F  F007         	goto	l3033
  8280  000E1A                     l3031:
  8281  000E1A  90D8               	bcf	status,0,c
  8282  000E1C  3237               	rrcf	___fladd@grs^0,f,c
  8283  000E1E                     l3033:
  8284  000E1E  A028               	btfss	___fladd@b^0,0,c
  8285  000E20  EF14  F007         	goto	u3071
  8286  000E24  EF16  F007         	goto	u3070
  8287  000E28                     u3071:
  8288  000E28  EF17  F007         	goto	l3037
  8289  000E2C                     u3070:
  8290  000E2C  8E37               	bsf	___fladd@grs^0,7,c
  8291  000E2E                     l3037:
  8292  000E2E  342B               	rlcf	(___fladd@b+3)^0,w,c
  8293  000E30  322B               	rrcf	(___fladd@b+3)^0,f,c
  8294  000E32  322A               	rrcf	(___fladd@b+2)^0,f,c
  8295  000E34  3229               	rrcf	(___fladd@b+1)^0,f,c
  8296  000E36  3228               	rrcf	___fladd@b^0,f,c
  8297  000E38  2A36               	incf	___fladd@bexp^0,f,c
  8298  000E3A  EFAC  F007         	goto	l3077
  8299  000E3E                     l3041:
  8300  000E3E  502C               	movf	___fladd@a^0,w,c
  8301  000E40  5C28               	subwf	___fladd@b^0,w,c
  8302  000E42  502D               	movf	(___fladd@a+1)^0,w,c
  8303  000E44  5829               	subwfb	(___fladd@b+1)^0,w,c
  8304  000E46  502E               	movf	(___fladd@a+2)^0,w,c
  8305  000E48  582A               	subwfb	(___fladd@b+2)^0,w,c
  8306  000E4A  502B               	movf	(___fladd@b+3)^0,w,c
  8307  000E4C  0A80               	xorlw	128
  8308  000E4E  6E30               	movwf	??___fladd^0,c
  8309  000E50  502F               	movf	(___fladd@a+3)^0,w,c
  8310  000E52  0A80               	xorlw	128
  8311  000E54  5830               	subwfb	??___fladd^0,w,c
  8312  000E56  B0D8               	btfsc	status,0,c
  8313  000E58  EF30  F007         	goto	u3081
  8314  000E5C  EF32  F007         	goto	u3080
  8315  000E60                     u3081:
  8316  000E60  EF5D  F007         	goto	l3051
  8317  000E64                     u3080:
  8318  000E64  5028               	movf	___fladd@b^0,w,c
  8319  000E66  5C2C               	subwf	___fladd@a^0,w,c
  8320  000E68  6E30               	movwf	??___fladd^0,c
  8321  000E6A  5029               	movf	(___fladd@b+1)^0,w,c
  8322  000E6C  582D               	subwfb	(___fladd@a+1)^0,w,c
  8323  000E6E  6E31               	movwf	(??___fladd+1)^0,c
  8324  000E70  502A               	movf	(___fladd@b+2)^0,w,c
  8325  000E72  582E               	subwfb	(___fladd@a+2)^0,w,c
  8326  000E74  6E32               	movwf	(??___fladd+2)^0,c
  8327  000E76  502B               	movf	(___fladd@b+3)^0,w,c
  8328  000E78  582F               	subwfb	(___fladd@a+3)^0,w,c
  8329  000E7A  6E33               	movwf	(??___fladd+3)^0,c
  8330  000E7C  0EFF               	movlw	255
  8331  000E7E  2430               	addwf	??___fladd^0,w,c
  8332  000E80  6E28               	movwf	___fladd@b^0,c
  8333  000E82  0EFF               	movlw	255
  8334  000E84  2031               	addwfc	(??___fladd+1)^0,w,c
  8335  000E86  6E29               	movwf	(___fladd@b+1)^0,c
  8336  000E88  0EFF               	movlw	255
  8337  000E8A  2032               	addwfc	(??___fladd+2)^0,w,c
  8338  000E8C  6E2A               	movwf	(___fladd@b+2)^0,c
  8339  000E8E  0EFF               	movlw	255
  8340  000E90  2033               	addwfc	(??___fladd+3)^0,w,c
  8341  000E92  6E2B               	movwf	(___fladd@b+3)^0,c
  8342  000E94  0E80               	movlw	128
  8343  000E96  1A34               	xorwf	___fladd@signs^0,f,c
  8344  000E98  6C37               	negf	___fladd@grs^0,c
  8345  000E9A  5037               	movf	___fladd@grs^0,w,c
  8346  000E9C  A4D8               	btfss	status,2,c
  8347  000E9E  EF53  F007         	goto	u3091
  8348  000EA2  EF55  F007         	goto	u3090
  8349  000EA6                     u3091:
  8350  000EA6  EF65  F007         	goto	l1065
  8351  000EAA                     u3090:
  8352  000EAA  0E01               	movlw	1
  8353  000EAC  2628               	addwf	___fladd@b^0,f,c
  8354  000EAE  0E00               	movlw	0
  8355  000EB0  2229               	addwfc	(___fladd@b+1)^0,f,c
  8356  000EB2  222A               	addwfc	(___fladd@b+2)^0,f,c
  8357  000EB4  222B               	addwfc	(___fladd@b+3)^0,f,c
  8358  000EB6  EF65  F007         	goto	l1065
  8359  000EBA                     l3051:
  8360  000EBA  502C               	movf	___fladd@a^0,w,c
  8361  000EBC  5E28               	subwf	___fladd@b^0,f,c
  8362  000EBE  502D               	movf	(___fladd@a+1)^0,w,c
  8363  000EC0  5A29               	subwfb	(___fladd@b+1)^0,f,c
  8364  000EC2  502E               	movf	(___fladd@a+2)^0,w,c
  8365  000EC4  5A2A               	subwfb	(___fladd@b+2)^0,f,c
  8366  000EC6  502F               	movf	(___fladd@a+3)^0,w,c
  8367  000EC8  5A2B               	subwfb	(___fladd@b+3)^0,f,c
  8368  000ECA                     l1065:
  8369  000ECA  5028               	movf	___fladd@b^0,w,c
  8370  000ECC  1029               	iorwf	(___fladd@b+1)^0,w,c
  8371  000ECE  102A               	iorwf	(___fladd@b+2)^0,w,c
  8372  000ED0  102B               	iorwf	(___fladd@b+3)^0,w,c
  8373  000ED2  A4D8               	btfss	status,2,c
  8374  000ED4  EF6E  F007         	goto	u3101
  8375  000ED8  EF70  F007         	goto	u3100
  8376  000EDC                     u3101:
  8377  000EDC  EFA5  F007         	goto	l3075
  8378  000EE0                     u3100:
  8379  000EE0  5037               	movf	___fladd@grs^0,w,c
  8380  000EE2  A4D8               	btfss	status,2,c
  8381  000EE4  EF76  F007         	goto	u3111
  8382  000EE8  EF78  F007         	goto	u3110
  8383  000EEC                     u3111:
  8384  000EEC  EFA5  F007         	goto	l3075
  8385  000EF0                     u3110:
  8386  000EF0  0E00               	movlw	0
  8387  000EF2  6E28               	movwf	?___fladd^0,c
  8388  000EF4  0E00               	movlw	0
  8389  000EF6  6E29               	movwf	(?___fladd+1)^0,c
  8390  000EF8  0E00               	movlw	0
  8391  000EFA  6E2A               	movwf	(?___fladd+2)^0,c
  8392  000EFC  0E00               	movlw	0
  8393  000EFE  6E2B               	movwf	(?___fladd+3)^0,c
  8394  000F00  EF40  F008         	goto	l1057
  8395  000F04                     l3059:
  8396  000F04  90D8               	bcf	status,0,c
  8397  000F06  3628               	rlcf	___fladd@b^0,f,c
  8398  000F08  3629               	rlcf	(___fladd@b+1)^0,f,c
  8399  000F0A  362A               	rlcf	(___fladd@b+2)^0,f,c
  8400  000F0C  362B               	rlcf	(___fladd@b+3)^0,f,c
  8401  000F0E  AE37               	btfss	___fladd@grs^0,7,c
  8402  000F10  EF8C  F007         	goto	u3121
  8403  000F14  EF8E  F007         	goto	u3120
  8404  000F18                     u3121:
  8405  000F18  EF8F  F007         	goto	l3065
  8406  000F1C                     u3120:
  8407  000F1C  8028               	bsf	___fladd@b^0,0,c
  8408  000F1E                     l3065:
  8409  000F1E  A037               	btfss	___fladd@grs^0,0,c
  8410  000F20  EF94  F007         	goto	u3131
  8411  000F24  EF96  F007         	goto	u3130
  8412  000F28                     u3131:
  8413  000F28  EF9A  F007         	goto	l3069
  8414  000F2C                     u3130:
  8415  000F2C  80D8               	bsf	status,0,c
  8416  000F2E  3637               	rlcf	___fladd@grs^0,f,c
  8417  000F30  EF9C  F007         	goto	l3071
  8418  000F34                     l3069:
  8419  000F34  90D8               	bcf	status,0,c
  8420  000F36  3637               	rlcf	___fladd@grs^0,f,c
  8421  000F38                     l3071:
  8422  000F38  5036               	movf	___fladd@bexp^0,w,c
  8423  000F3A  B4D8               	btfsc	status,2,c
  8424  000F3C  EFA2  F007         	goto	u3141
  8425  000F40  EFA4  F007         	goto	u3140
  8426  000F44                     u3141:
  8427  000F44  EFA5  F007         	goto	l3075
  8428  000F48                     u3140:
  8429  000F48  0636               	decf	___fladd@bexp^0,f,c
  8430  000F4A                     l3075:
  8431  000F4A  AE2A               	btfss	(___fladd@b+2)^0,7,c
  8432  000F4C  EFAA  F007         	goto	u3151
  8433  000F50  EFAC  F007         	goto	u3150
  8434  000F54                     u3151:
  8435  000F54  EF82  F007         	goto	l3059
  8436  000F58                     u3150:
  8437  000F58                     l3077:
  8438  000F58  0E00               	movlw	0
  8439  000F5A  6E35               	movwf	___fladd@aexp^0,c
  8440  000F5C  AE37               	btfss	___fladd@grs^0,7,c
  8441  000F5E  EFB3  F007         	goto	u3161
  8442  000F62  EFB5  F007         	goto	u3160
  8443  000F66                     u3161:
  8444  000F66  EFCD  F007         	goto	l1074
  8445  000F6A                     u3160:
  8446  000F6A  C037  F030         	movff	___fladd@grs,??___fladd
  8447  000F6E  0E7F               	movlw	127
  8448  000F70  1630               	andwf	??___fladd^0,f,c
  8449  000F72  B4D8               	btfsc	status,2,c
  8450  000F74  EFBE  F007         	goto	u3171
  8451  000F78  EFC0  F007         	goto	u3170
  8452  000F7C                     u3171:
  8453  000F7C  EFC4  F007         	goto	l1075
  8454  000F80                     u3170:
  8455  000F80                     l3083:
  8456  000F80  0E01               	movlw	1
  8457  000F82  6E35               	movwf	___fladd@aexp^0,c
  8458  000F84  EFCD  F007         	goto	l1074
  8459  000F88                     l1075:
  8460  000F88  A028               	btfss	___fladd@b^0,0,c
  8461  000F8A  EFC9  F007         	goto	u3181
  8462  000F8E  EFCB  F007         	goto	u3180
  8463  000F92                     u3181:
  8464  000F92  EFCD  F007         	goto	l1074
  8465  000F96                     u3180:
  8466  000F96  EFC0  F007         	goto	l3083
  8467  000F9A                     l1074:
  8468  000F9A  5035               	movf	___fladd@aexp^0,w,c
  8469  000F9C  B4D8               	btfsc	status,2,c
  8470  000F9E  EFD3  F007         	goto	u3191
  8471  000FA2  EFD5  F007         	goto	u3190
  8472  000FA6                     u3191:
  8473  000FA6  EF00  F008         	goto	l3095
  8474  000FAA                     u3190:
  8475  000FAA  0E01               	movlw	1
  8476  000FAC  2628               	addwf	___fladd@b^0,f,c
  8477  000FAE  0E00               	movlw	0
  8478  000FB0  2229               	addwfc	(___fladd@b+1)^0,f,c
  8479  000FB2  222A               	addwfc	(___fladd@b+2)^0,f,c
  8480  000FB4  222B               	addwfc	(___fladd@b+3)^0,f,c
  8481  000FB6  A02B               	btfss	(___fladd@b+3)^0,0,c
  8482  000FB8  EFE0  F007         	goto	u3201
  8483  000FBC  EFE2  F007         	goto	u3200
  8484  000FC0                     u3201:
  8485  000FC0  EF00  F008         	goto	l3095
  8486  000FC4                     u3200:
  8487  000FC4  C028  F030         	movff	___fladd@b,??___fladd
  8488  000FC8  C029  F031         	movff	___fladd@b+1,??___fladd+1
  8489  000FCC  C02A  F032         	movff	___fladd@b+2,??___fladd+2
  8490  000FD0  C02B  F033         	movff	___fladd@b+3,??___fladd+3
  8491  000FD4  3433               	rlcf	(??___fladd+3)^0,w,c
  8492  000FD6  3233               	rrcf	(??___fladd+3)^0,f,c
  8493  000FD8  3232               	rrcf	(??___fladd+2)^0,f,c
  8494  000FDA  3231               	rrcf	(??___fladd+1)^0,f,c
  8495  000FDC  3230               	rrcf	??___fladd^0,f,c
  8496  000FDE  C030  F028         	movff	??___fladd,___fladd@b
  8497  000FE2  C031  F029         	movff	??___fladd+1,___fladd@b+1
  8498  000FE6  C032  F02A         	movff	??___fladd+2,___fladd@b+2
  8499  000FEA  C033  F02B         	movff	??___fladd+3,___fladd@b+3
  8500  000FEE  2836               	incf	___fladd@bexp^0,w,c
  8501  000FF0  B4D8               	btfsc	status,2,c
  8502  000FF2  EFFD  F007         	goto	u3211
  8503  000FF6  EFFF  F007         	goto	u3210
  8504  000FFA                     u3211:
  8505  000FFA  EF00  F008         	goto	l3095
  8506  000FFE                     u3210:
  8507  000FFE  2A36               	incf	___fladd@bexp^0,f,c
  8508  001000                     l3095:
  8509  001000  2836               	incf	___fladd@bexp^0,w,c
  8510  001002  B4D8               	btfsc	status,2,c
  8511  001004  EF06  F008         	goto	u3221
  8512  001008  EF08  F008         	goto	u3220
  8513  00100C                     u3221:
  8514  00100C  EF10  F008         	goto	l3099
  8515  001010                     u3220:
  8516  001010  5036               	movf	___fladd@bexp^0,w,c
  8517  001012  A4D8               	btfss	status,2,c
  8518  001014  EF0E  F008         	goto	u3231
  8519  001018  EF10  F008         	goto	u3230
  8520  00101C                     u3231:
  8521  00101C  EF22  F008         	goto	l3103
  8522  001020                     u3230:
  8523  001020                     l3099:
  8524  001020  0E00               	movlw	0
  8525  001022  6E28               	movwf	___fladd@b^0,c
  8526  001024  0E00               	movlw	0
  8527  001026  6E29               	movwf	(___fladd@b+1)^0,c
  8528  001028  0E00               	movlw	0
  8529  00102A  6E2A               	movwf	(___fladd@b+2)^0,c
  8530  00102C  0E00               	movlw	0
  8531  00102E  6E2B               	movwf	(___fladd@b+3)^0,c
  8532  001030  5036               	movf	___fladd@bexp^0,w,c
  8533  001032  A4D8               	btfss	status,2,c
  8534  001034  EF1E  F008         	goto	u3241
  8535  001038  EF20  F008         	goto	u3240
  8536  00103C                     u3241:
  8537  00103C  EF22  F008         	goto	l3103
  8538  001040                     u3240:
  8539  001040  0E00               	movlw	0
  8540  001042  6E34               	movwf	___fladd@signs^0,c
  8541  001044                     l3103:
  8542  001044  A036               	btfss	___fladd@bexp^0,0,c
  8543  001046  EF27  F008         	goto	u3251
  8544  00104A  EF29  F008         	goto	u3250
  8545  00104E                     u3251:
  8546  00104E  EF2C  F008         	goto	l3107
  8547  001052                     u3250:
  8548  001052  8E2A               	bsf	(___fladd@b+2)^0,7,c
  8549  001054  EF2D  F008         	goto	l3109
  8550  001058                     l3107:
  8551  001058  9E2A               	bcf	(___fladd@b+2)^0,7,c
  8552  00105A                     l3109:
  8553  00105A  90D8               	bcf	status,0,c
  8554  00105C  3036               	rrcf	___fladd@bexp^0,w,c
  8555  00105E  6E2B               	movwf	(___fladd@b+3)^0,c
  8556  001060  AE34               	btfss	___fladd@signs^0,7,c
  8557  001062  EF35  F008         	goto	u3261
  8558  001066  EF37  F008         	goto	u3260
  8559  00106A                     u3261:
  8560  00106A  EF38  F008         	goto	l3115
  8561  00106E                     u3260:
  8562  00106E  8E2B               	bsf	(___fladd@b+3)^0,7,c
  8563  001070                     l3115:
  8564  001070  C028  F028         	movff	___fladd@b,?___fladd
  8565  001074  C029  F029         	movff	___fladd@b+1,?___fladd+1
  8566  001078  C02A  F02A         	movff	___fladd@b+2,?___fladd+2
  8567  00107C  C02B  F02B         	movff	___fladd@b+3,?___fladd+3
  8568  001080                     l1057:
  8569  001080  0012               	return		;funcret
  8570  001082                     __end_of___fladd:
  8571                           	callstack 0
  8572                           
  8573 ;; *************** function ___flmul *****************
  8574 ;; Defined at:
  8575 ;;		line 8 in file "C:\Program Files\Microchip\xc8\v2.32\pic\sources\c99\common\sprcmul.c"
  8576 ;; Parameters:    Size  Location     Type
  8577 ;;  b               4   55[COMRAM] unsigned char 
  8578 ;;  a               4   59[COMRAM] unsigned char 
  8579 ;; Auto vars:     Size  Location     Type
  8580 ;;  prod            4   74[COMRAM] struct .
  8581 ;;  grs             4   68[COMRAM] unsigned long 
  8582 ;;  temp            2   78[COMRAM] struct .
  8583 ;;  bexp            1   73[COMRAM] unsigned char 
  8584 ;;  aexp            1   72[COMRAM] unsigned char 
  8585 ;;  sign            1   67[COMRAM] unsigned char 
  8586 ;; Return value:  Size  Location     Type
  8587 ;;                  4   55[COMRAM] unsigned char 
  8588 ;; Registers used:
  8589 ;;		wreg, status,2, status,0, prodl, prodh
  8590 ;; Tracked objects:
  8591 ;;		On entry : 0/0
  8592 ;;		On exit  : 0/0
  8593 ;;		Unchanged: 0/0
  8594 ;; Data sizes:     COMRAM   BANK0   BANK1   BANK2   BANK3   BANK4   BANK5
  8595 ;;      Params:         8       0       0       0       0       0       0
  8596 ;;      Locals:        13       0       0       0       0       0       0
  8597 ;;      Temps:          4       0       0       0       0       0       0
  8598 ;;      Totals:        25       0       0       0       0       0       0
  8599 ;;Total ram usage:       25 bytes
  8600 ;; Hardware stack levels used: 1
  8601 ;; This function calls:
  8602 ;;		Nothing
  8603 ;; This function is called by:
  8604 ;;		_comandos
  8605 ;;		_infoIndividual
  8606 ;;		_ssdHeat
  8607 ;; This function uses a non-reentrant model
  8608 ;;
  8609                           
  8610                           	psect	text50
  8611  001082                     __ptext50:
  8612                           	callstack 0
  8613  001082                     ___flmul:
  8614                           	callstack 29
  8615  001082  503B               	movf	(___flmul@b+3)^0,w,c
  8616  001084  0B80               	andlw	128
  8617  001086  6E44               	movwf	___flmul@sign^0,c
  8618  001088  503B               	movf	(___flmul@b+3)^0,w,c
  8619  00108A  243B               	addwf	(___flmul@b+3)^0,w,c
  8620  00108C  6E4A               	movwf	___flmul@bexp^0,c
  8621  00108E  AE3A               	btfss	(___flmul@b+2)^0,7,c
  8622  001090  EF4C  F008         	goto	u4031
  8623  001094  EF4E  F008         	goto	u4030
  8624  001098                     u4031:
  8625  001098  EF4F  F008         	goto	l3511
  8626  00109C                     u4030:
  8627  00109C  804A               	bsf	___flmul@bexp^0,0,c
  8628  00109E                     l3511:
  8629  00109E  504A               	movf	___flmul@bexp^0,w,c
  8630  0010A0  B4D8               	btfsc	status,2,c
  8631  0010A2  EF55  F008         	goto	u4041
  8632  0010A6  EF57  F008         	goto	u4040
  8633  0010AA                     u4041:
  8634  0010AA  EF6A  F008         	goto	l3519
  8635  0010AE                     u4040:
  8636  0010AE  284A               	incf	___flmul@bexp^0,w,c
  8637  0010B0  A4D8               	btfss	status,2,c
  8638  0010B2  EF5D  F008         	goto	u4051
  8639  0010B6  EF5F  F008         	goto	u4050
  8640  0010BA                     u4051:
  8641  0010BA  EF67  F008         	goto	l3517
  8642  0010BE                     u4050:
  8643  0010BE  0E00               	movlw	0
  8644  0010C0  6E38               	movwf	___flmul@b^0,c
  8645  0010C2  0E00               	movlw	0
  8646  0010C4  6E39               	movwf	(___flmul@b+1)^0,c
  8647  0010C6  0E00               	movlw	0
  8648  0010C8  6E3A               	movwf	(___flmul@b+2)^0,c
  8649  0010CA  0E00               	movlw	0
  8650  0010CC  6E3B               	movwf	(___flmul@b+3)^0,c
  8651  0010CE                     l3517:
  8652  0010CE  8E3A               	bsf	(___flmul@b+2)^0,7,c
  8653  0010D0  EF72  F008         	goto	l3521
  8654  0010D4                     l3519:
  8655  0010D4  0E00               	movlw	0
  8656  0010D6  6E38               	movwf	___flmul@b^0,c
  8657  0010D8  0E00               	movlw	0
  8658  0010DA  6E39               	movwf	(___flmul@b+1)^0,c
  8659  0010DC  0E00               	movlw	0
  8660  0010DE  6E3A               	movwf	(___flmul@b+2)^0,c
  8661  0010E0  0E00               	movlw	0
  8662  0010E2  6E3B               	movwf	(___flmul@b+3)^0,c
  8663  0010E4                     l3521:
  8664  0010E4  503F               	movf	(___flmul@a+3)^0,w,c
  8665  0010E6  0B80               	andlw	128
  8666  0010E8  1A44               	xorwf	___flmul@sign^0,f,c
  8667  0010EA  503F               	movf	(___flmul@a+3)^0,w,c
  8668  0010EC  243F               	addwf	(___flmul@a+3)^0,w,c
  8669  0010EE  6E49               	movwf	___flmul@aexp^0,c
  8670  0010F0  AE3E               	btfss	(___flmul@a+2)^0,7,c
  8671  0010F2  EF7D  F008         	goto	u4061
  8672  0010F6  EF7F  F008         	goto	u4060
  8673  0010FA                     u4061:
  8674  0010FA  EF80  F008         	goto	l3529
  8675  0010FE                     u4060:
  8676  0010FE  8049               	bsf	___flmul@aexp^0,0,c
  8677  001100                     l3529:
  8678  001100  5049               	movf	___flmul@aexp^0,w,c
  8679  001102  B4D8               	btfsc	status,2,c
  8680  001104  EF86  F008         	goto	u4071
  8681  001108  EF88  F008         	goto	u4070
  8682  00110C                     u4071:
  8683  00110C  EF9B  F008         	goto	l3537
  8684  001110                     u4070:
  8685  001110  2849               	incf	___flmul@aexp^0,w,c
  8686  001112  A4D8               	btfss	status,2,c
  8687  001114  EF8E  F008         	goto	u4081
  8688  001118  EF90  F008         	goto	u4080
  8689  00111C                     u4081:
  8690  00111C  EF98  F008         	goto	l3535
  8691  001120                     u4080:
  8692  001120  0E00               	movlw	0
  8693  001122  6E3C               	movwf	___flmul@a^0,c
  8694  001124  0E00               	movlw	0
  8695  001126  6E3D               	movwf	(___flmul@a+1)^0,c
  8696  001128  0E00               	movlw	0
  8697  00112A  6E3E               	movwf	(___flmul@a+2)^0,c
  8698  00112C  0E00               	movlw	0
  8699  00112E  6E3F               	movwf	(___flmul@a+3)^0,c
  8700  001130                     l3535:
  8701  001130  8E3E               	bsf	(___flmul@a+2)^0,7,c
  8702  001132  EFA3  F008         	goto	l1134
  8703  001136                     l3537:
  8704  001136  0E00               	movlw	0
  8705  001138  6E3C               	movwf	___flmul@a^0,c
  8706  00113A  0E00               	movlw	0
  8707  00113C  6E3D               	movwf	(___flmul@a+1)^0,c
  8708  00113E  0E00               	movlw	0
  8709  001140  6E3E               	movwf	(___flmul@a+2)^0,c
  8710  001142  0E00               	movlw	0
  8711  001144  6E3F               	movwf	(___flmul@a+3)^0,c
  8712  001146                     l1134:
  8713  001146  5049               	movf	___flmul@aexp^0,w,c
  8714  001148  B4D8               	btfsc	status,2,c
  8715  00114A  EFA9  F008         	goto	u4091
  8716  00114E  EFAB  F008         	goto	u4090
  8717  001152                     u4091:
  8718  001152  EFB3  F008         	goto	l3541
  8719  001156                     u4090:
  8720  001156  504A               	movf	___flmul@bexp^0,w,c
  8721  001158  A4D8               	btfss	status,2,c
  8722  00115A  EFB1  F008         	goto	u4101
  8723  00115E  EFB3  F008         	goto	u4100
  8724  001162                     u4101:
  8725  001162  EFBD  F008         	goto	l3545
  8726  001166                     u4100:
  8727  001166                     l3541:
  8728  001166  0E00               	movlw	0
  8729  001168  6E38               	movwf	?___flmul^0,c
  8730  00116A  0E00               	movlw	0
  8731  00116C  6E39               	movwf	(?___flmul+1)^0,c
  8732  00116E  0E00               	movlw	0
  8733  001170  6E3A               	movwf	(?___flmul+2)^0,c
  8734  001172  0E00               	movlw	0
  8735  001174  6E3B               	movwf	(?___flmul+3)^0,c
  8736  001176  EF55  F00A         	goto	l1138
  8737  00117A                     l3545:
  8738  00117A  503E               	movf	(___flmul@a+2)^0,w,c
  8739  00117C  0238               	mulwf	___flmul@b^0,c
  8740  00117E  CFF3 F04F          	movff	prodl,___flmul@temp
  8741  001182  CFF4 F050          	movff	prodh,___flmul@temp+1
  8742  001186  504F               	movf	___flmul@temp^0,w,c
  8743  001188  6E45               	movwf	___flmul@grs^0,c
  8744  00118A  6A46               	clrf	(___flmul@grs+1)^0,c
  8745  00118C  6A47               	clrf	(___flmul@grs+2)^0,c
  8746  00118E  6A48               	clrf	(___flmul@grs+3)^0,c
  8747  001190  5050               	movf	(___flmul@temp+1)^0,w,c
  8748  001192  6E4B               	movwf	___flmul@prod^0,c
  8749  001194  6A4C               	clrf	(___flmul@prod+1)^0,c
  8750  001196  6A4D               	clrf	(___flmul@prod+2)^0,c
  8751  001198  6A4E               	clrf	(___flmul@prod+3)^0,c
  8752  00119A  503D               	movf	(___flmul@a+1)^0,w,c
  8753  00119C  0239               	mulwf	(___flmul@b+1)^0,c
  8754  00119E  CFF3 F04F          	movff	prodl,___flmul@temp
  8755  0011A2  CFF4 F050          	movff	prodh,___flmul@temp+1
  8756  0011A6  504F               	movf	___flmul@temp^0,w,c
  8757  0011A8  2645               	addwf	___flmul@grs^0,f,c
  8758  0011AA  0E00               	movlw	0
  8759  0011AC  2246               	addwfc	(___flmul@grs+1)^0,f,c
  8760  0011AE  2247               	addwfc	(___flmul@grs+2)^0,f,c
  8761  0011B0  2248               	addwfc	(___flmul@grs+3)^0,f,c
  8762  0011B2  5050               	movf	(___flmul@temp+1)^0,w,c
  8763  0011B4  264B               	addwf	___flmul@prod^0,f,c
  8764  0011B6  0E00               	movlw	0
  8765  0011B8  224C               	addwfc	(___flmul@prod+1)^0,f,c
  8766  0011BA  224D               	addwfc	(___flmul@prod+2)^0,f,c
  8767  0011BC  224E               	addwfc	(___flmul@prod+3)^0,f,c
  8768  0011BE  503C               	movf	___flmul@a^0,w,c
  8769  0011C0  023A               	mulwf	(___flmul@b+2)^0,c
  8770  0011C2  CFF3 F04F          	movff	prodl,___flmul@temp
  8771  0011C6  CFF4 F050          	movff	prodh,___flmul@temp+1
  8772  0011CA  504F               	movf	___flmul@temp^0,w,c
  8773  0011CC  2645               	addwf	___flmul@grs^0,f,c
  8774  0011CE  0E00               	movlw	0
  8775  0011D0  2246               	addwfc	(___flmul@grs+1)^0,f,c
  8776  0011D2  2247               	addwfc	(___flmul@grs+2)^0,f,c
  8777  0011D4  2248               	addwfc	(___flmul@grs+3)^0,f,c
  8778  0011D6  5050               	movf	(___flmul@temp+1)^0,w,c
  8779  0011D8  264B               	addwf	___flmul@prod^0,f,c
  8780  0011DA  0E00               	movlw	0
  8781  0011DC  224C               	addwfc	(___flmul@prod+1)^0,f,c
  8782  0011DE  224D               	addwfc	(___flmul@prod+2)^0,f,c
  8783  0011E0  224E               	addwfc	(___flmul@prod+3)^0,f,c
  8784  0011E2  C047  F048         	movff	___flmul@grs+2,___flmul@grs+3
  8785  0011E6  C046  F047         	movff	___flmul@grs+1,___flmul@grs+2
  8786  0011EA  C045  F046         	movff	___flmul@grs,___flmul@grs+1
  8787  0011EE  6A45               	clrf	___flmul@grs^0,c
  8788  0011F0  503C               	movf	___flmul@a^0,w,c
  8789  0011F2  0239               	mulwf	(___flmul@b+1)^0,c
  8790  0011F4  CFF3 F04F          	movff	prodl,___flmul@temp
  8791  0011F8  CFF4 F050          	movff	prodh,___flmul@temp+1
  8792  0011FC  504F               	movf	___flmul@temp^0,w,c
  8793  0011FE  2645               	addwf	___flmul@grs^0,f,c
  8794  001200  5050               	movf	(___flmul@temp+1)^0,w,c
  8795  001202  2246               	addwfc	(___flmul@grs+1)^0,f,c
  8796  001204  0E00               	movlw	0
  8797  001206  2247               	addwfc	(___flmul@grs+2)^0,f,c
  8798  001208  0E00               	movlw	0
  8799  00120A  2248               	addwfc	(___flmul@grs+3)^0,f,c
  8800  00120C  503D               	movf	(___flmul@a+1)^0,w,c
  8801  00120E  0238               	mulwf	___flmul@b^0,c
  8802  001210  CFF3 F04F          	movff	prodl,___flmul@temp
  8803  001214  CFF4 F050          	movff	prodh,___flmul@temp+1
  8804  001218  504F               	movf	___flmul@temp^0,w,c
  8805  00121A  2645               	addwf	___flmul@grs^0,f,c
  8806  00121C  5050               	movf	(___flmul@temp+1)^0,w,c
  8807  00121E  2246               	addwfc	(___flmul@grs+1)^0,f,c
  8808  001220  0E00               	movlw	0
  8809  001222  2247               	addwfc	(___flmul@grs+2)^0,f,c
  8810  001224  0E00               	movlw	0
  8811  001226  2248               	addwfc	(___flmul@grs+3)^0,f,c
  8812  001228  C047  F048         	movff	___flmul@grs+2,___flmul@grs+3
  8813  00122C  C046  F047         	movff	___flmul@grs+1,___flmul@grs+2
  8814  001230  C045  F046         	movff	___flmul@grs,___flmul@grs+1
  8815  001234  6A45               	clrf	___flmul@grs^0,c
  8816  001236  503C               	movf	___flmul@a^0,w,c
  8817  001238  0238               	mulwf	___flmul@b^0,c
  8818  00123A  CFF3 F04F          	movff	prodl,___flmul@temp
  8819  00123E  CFF4 F050          	movff	prodh,___flmul@temp+1
  8820  001242  504F               	movf	___flmul@temp^0,w,c
  8821  001244  2645               	addwf	___flmul@grs^0,f,c
  8822  001246  5050               	movf	(___flmul@temp+1)^0,w,c
  8823  001248  2246               	addwfc	(___flmul@grs+1)^0,f,c
  8824  00124A  0E00               	movlw	0
  8825  00124C  2247               	addwfc	(___flmul@grs+2)^0,f,c
  8826  00124E  0E00               	movlw	0
  8827  001250  2248               	addwfc	(___flmul@grs+3)^0,f,c
  8828  001252  503E               	movf	(___flmul@a+2)^0,w,c
  8829  001254  0239               	mulwf	(___flmul@b+1)^0,c
  8830  001256  CFF3 F04F          	movff	prodl,___flmul@temp
  8831  00125A  CFF4 F050          	movff	prodh,___flmul@temp+1
  8832  00125E  504F               	movf	___flmul@temp^0,w,c
  8833  001260  264B               	addwf	___flmul@prod^0,f,c
  8834  001262  5050               	movf	(___flmul@temp+1)^0,w,c
  8835  001264  224C               	addwfc	(___flmul@prod+1)^0,f,c
  8836  001266  0E00               	movlw	0
  8837  001268  224D               	addwfc	(___flmul@prod+2)^0,f,c
  8838  00126A  0E00               	movlw	0
  8839  00126C  224E               	addwfc	(___flmul@prod+3)^0,f,c
  8840  00126E  503D               	movf	(___flmul@a+1)^0,w,c
  8841  001270  023A               	mulwf	(___flmul@b+2)^0,c
  8842  001272  CFF3 F04F          	movff	prodl,___flmul@temp
  8843  001276  CFF4 F050          	movff	prodh,___flmul@temp+1
  8844  00127A  504F               	movf	___flmul@temp^0,w,c
  8845  00127C  264B               	addwf	___flmul@prod^0,f,c
  8846  00127E  5050               	movf	(___flmul@temp+1)^0,w,c
  8847  001280  224C               	addwfc	(___flmul@prod+1)^0,f,c
  8848  001282  0E00               	movlw	0
  8849  001284  224D               	addwfc	(___flmul@prod+2)^0,f,c
  8850  001286  0E00               	movlw	0
  8851  001288  224E               	addwfc	(___flmul@prod+3)^0,f,c
  8852  00128A  503E               	movf	(___flmul@a+2)^0,w,c
  8853  00128C  023A               	mulwf	(___flmul@b+2)^0,c
  8854  00128E  CFF3 F04F          	movff	prodl,___flmul@temp
  8855  001292  CFF4 F050          	movff	prodh,___flmul@temp+1
  8856  001296  504F               	movf	___flmul@temp^0,w,c
  8857  001298  6E40               	movwf	??___flmul^0,c
  8858  00129A  5050               	movf	(___flmul@temp+1)^0,w,c
  8859  00129C  6E41               	movwf	(??___flmul+1)^0,c
  8860  00129E  6A42               	clrf	(??___flmul+2)^0,c
  8861  0012A0  6A43               	clrf	(??___flmul+3)^0,c
  8862  0012A2  C042  F043         	movff	??___flmul+2,??___flmul+3
  8863  0012A6  C041  F042         	movff	??___flmul+1,??___flmul+2
  8864  0012AA  C040  F041         	movff	??___flmul,??___flmul+1
  8865  0012AE  6A40               	clrf	??___flmul^0,c
  8866  0012B0  5040               	movf	??___flmul^0,w,c
  8867  0012B2  264B               	addwf	___flmul@prod^0,f,c
  8868  0012B4  5041               	movf	(??___flmul+1)^0,w,c
  8869  0012B6  224C               	addwfc	(___flmul@prod+1)^0,f,c
  8870  0012B8  5042               	movf	(??___flmul+2)^0,w,c
  8871  0012BA  224D               	addwfc	(___flmul@prod+2)^0,f,c
  8872  0012BC  5043               	movf	(??___flmul+3)^0,w,c
  8873  0012BE  224E               	addwfc	(___flmul@prod+3)^0,f,c
  8874  0012C0  C045  F040         	movff	___flmul@grs,??___flmul
  8875  0012C4  C046  F041         	movff	___flmul@grs+1,??___flmul+1
  8876  0012C8  C047  F042         	movff	___flmul@grs+2,??___flmul+2
  8877  0012CC  C048  F043         	movff	___flmul@grs+3,??___flmul+3
  8878  0012D0  0E19               	movlw	25
  8879  0012D2  EF70  F009         	goto	u4110
  8880  0012D6                     u4115:
  8881  0012D6  90D8               	bcf	status,0,c
  8882  0012D8  3243               	rrcf	(??___flmul+3)^0,f,c
  8883  0012DA  3242               	rrcf	(??___flmul+2)^0,f,c
  8884  0012DC  3241               	rrcf	(??___flmul+1)^0,f,c
  8885  0012DE  3240               	rrcf	??___flmul^0,f,c
  8886  0012E0                     u4110:
  8887  0012E0  2EE8               	decfsz	wreg,f,c
  8888  0012E2  EF6B  F009         	goto	u4115
  8889  0012E6  5040               	movf	??___flmul^0,w,c
  8890  0012E8  264B               	addwf	___flmul@prod^0,f,c
  8891  0012EA  5041               	movf	(??___flmul+1)^0,w,c
  8892  0012EC  224C               	addwfc	(___flmul@prod+1)^0,f,c
  8893  0012EE  5042               	movf	(??___flmul+2)^0,w,c
  8894  0012F0  224D               	addwfc	(___flmul@prod+2)^0,f,c
  8895  0012F2  5043               	movf	(??___flmul+3)^0,w,c
  8896  0012F4  224E               	addwfc	(___flmul@prod+3)^0,f,c
  8897  0012F6  C047  F048         	movff	___flmul@grs+2,___flmul@grs+3
  8898  0012FA  C046  F047         	movff	___flmul@grs+1,___flmul@grs+2
  8899  0012FE  C045  F046         	movff	___flmul@grs,___flmul@grs+1
  8900  001302  6A45               	clrf	___flmul@grs^0,c
  8901  001304  5049               	movf	___flmul@aexp^0,w,c
  8902  001306  C04A  F040         	movff	___flmul@bexp,??___flmul
  8903  00130A  6A41               	clrf	(??___flmul+1)^0,c
  8904  00130C  2640               	addwf	??___flmul^0,f,c
  8905  00130E  0E00               	movlw	0
  8906  001310  2241               	addwfc	(??___flmul+1)^0,f,c
  8907  001312  0E82               	movlw	130
  8908  001314  2440               	addwf	??___flmul^0,w,c
  8909  001316  6E4F               	movwf	___flmul@temp^0,c
  8910  001318  0EFF               	movlw	255
  8911  00131A  2041               	addwfc	(??___flmul+1)^0,w,c
  8912  00131C  6E50               	movwf	(___flmul@temp+1)^0,c
  8913  00131E  EFA6  F009         	goto	l3593
  8914  001322                     l3587:
  8915  001322  90D8               	bcf	status,0,c
  8916  001324  364B               	rlcf	___flmul@prod^0,f,c
  8917  001326  364C               	rlcf	(___flmul@prod+1)^0,f,c
  8918  001328  364D               	rlcf	(___flmul@prod+2)^0,f,c
  8919  00132A  364E               	rlcf	(___flmul@prod+3)^0,f,c
  8920  00132C  AE48               	btfss	(___flmul@grs+3)^0,7,c
  8921  00132E  EF9B  F009         	goto	u4121
  8922  001332  EF9D  F009         	goto	u4120
  8923  001336                     u4121:
  8924  001336  EF9E  F009         	goto	l1141
  8925  00133A                     u4120:
  8926  00133A  804B               	bsf	___flmul@prod^0,0,c
  8927  00133C                     l1141:
  8928  00133C  90D8               	bcf	status,0,c
  8929  00133E  3645               	rlcf	___flmul@grs^0,f,c
  8930  001340  3646               	rlcf	(___flmul@grs+1)^0,f,c
  8931  001342  3647               	rlcf	(___flmul@grs+2)^0,f,c
  8932  001344  3648               	rlcf	(___flmul@grs+3)^0,f,c
  8933  001346  064F               	decf	___flmul@temp^0,f,c
  8934  001348  A0D8               	btfss	status,0,c
  8935  00134A  0650               	decf	(___flmul@temp+1)^0,f,c
  8936  00134C                     l3593:
  8937  00134C  AE4D               	btfss	(___flmul@prod+2)^0,7,c
  8938  00134E  EFAB  F009         	goto	u4131
  8939  001352  EFAD  F009         	goto	u4130
  8940  001356                     u4131:
  8941  001356  EF91  F009         	goto	l3587
  8942  00135A                     u4130:
  8943  00135A  0E00               	movlw	0
  8944  00135C  6E49               	movwf	___flmul@aexp^0,c
  8945  00135E  AE48               	btfss	(___flmul@grs+3)^0,7,c
  8946  001360  EFB4  F009         	goto	u4141
  8947  001364  EFB6  F009         	goto	u4140
  8948  001368                     u4141:
  8949  001368  EFDA  F009         	goto	l1143
  8950  00136C                     u4140:
  8951  00136C  0EFF               	movlw	255
  8952  00136E  1445               	andwf	___flmul@grs^0,w,c
  8953  001370  6E40               	movwf	??___flmul^0,c
  8954  001372  0EFF               	movlw	255
  8955  001374  1446               	andwf	(___flmul@grs+1)^0,w,c
  8956  001376  6E41               	movwf	(??___flmul+1)^0,c
  8957  001378  0EFF               	movlw	255
  8958  00137A  1447               	andwf	(___flmul@grs+2)^0,w,c
  8959  00137C  6E42               	movwf	(??___flmul+2)^0,c
  8960  00137E  0E7F               	movlw	127
  8961  001380  1448               	andwf	(___flmul@grs+3)^0,w,c
  8962  001382  6E43               	movwf	(??___flmul+3)^0,c
  8963  001384  5040               	movf	??___flmul^0,w,c
  8964  001386  1041               	iorwf	(??___flmul+1)^0,w,c
  8965  001388  1042               	iorwf	(??___flmul+2)^0,w,c
  8966  00138A  1043               	iorwf	(??___flmul+3)^0,w,c
  8967  00138C  B4D8               	btfsc	status,2,c
  8968  00138E  EFCB  F009         	goto	u4151
  8969  001392  EFCD  F009         	goto	u4150
  8970  001396                     u4151:
  8971  001396  EFD1  F009         	goto	l1144
  8972  00139A                     u4150:
  8973  00139A                     l3601:
  8974  00139A  0E01               	movlw	1
  8975  00139C  6E49               	movwf	___flmul@aexp^0,c
  8976  00139E  EFDA  F009         	goto	l1143
  8977  0013A2                     l1144:
  8978  0013A2  A04B               	btfss	___flmul@prod^0,0,c
  8979  0013A4  EFD6  F009         	goto	u4161
  8980  0013A8  EFD8  F009         	goto	u4160
  8981  0013AC                     u4161:
  8982  0013AC  EFDA  F009         	goto	l1143
  8983  0013B0                     u4160:
  8984  0013B0  EFCD  F009         	goto	l3601
  8985  0013B4                     l1143:
  8986  0013B4  5049               	movf	___flmul@aexp^0,w,c
  8987  0013B6  B4D8               	btfsc	status,2,c
  8988  0013B8  EFE0  F009         	goto	u4171
  8989  0013BC  EFE2  F009         	goto	u4170
  8990  0013C0                     u4171:
  8991  0013C0  EF06  F00A         	goto	l3613
  8992  0013C4                     u4170:
  8993  0013C4  0E01               	movlw	1
  8994  0013C6  264B               	addwf	___flmul@prod^0,f,c
  8995  0013C8  0E00               	movlw	0
  8996  0013CA  224C               	addwfc	(___flmul@prod+1)^0,f,c
  8997  0013CC  224D               	addwfc	(___flmul@prod+2)^0,f,c
  8998  0013CE  224E               	addwfc	(___flmul@prod+3)^0,f,c
  8999  0013D0  A04E               	btfss	(___flmul@prod+3)^0,0,c
  9000  0013D2  EFED  F009         	goto	u4181
  9001  0013D6  EFEF  F009         	goto	u4180
  9002  0013DA                     u4181:
  9003  0013DA  EF06  F00A         	goto	l3613
  9004  0013DE                     u4180:
  9005  0013DE  C04B  F040         	movff	___flmul@prod,??___flmul
  9006  0013E2  C04C  F041         	movff	___flmul@prod+1,??___flmul+1
  9007  0013E6  C04D  F042         	movff	___flmul@prod+2,??___flmul+2
  9008  0013EA  C04E  F043         	movff	___flmul@prod+3,??___flmul+3
  9009  0013EE  3443               	rlcf	(??___flmul+3)^0,w,c
  9010  0013F0  3243               	rrcf	(??___flmul+3)^0,f,c
  9011  0013F2  3242               	rrcf	(??___flmul+2)^0,f,c
  9012  0013F4  3241               	rrcf	(??___flmul+1)^0,f,c
  9013  0013F6  3240               	rrcf	??___flmul^0,f,c
  9014  0013F8  C040  F04B         	movff	??___flmul,___flmul@prod
  9015  0013FC  C041  F04C         	movff	??___flmul+1,___flmul@prod+1
  9016  001400  C042  F04D         	movff	??___flmul+2,___flmul@prod+2
  9017  001404  C043  F04E         	movff	??___flmul+3,___flmul@prod+3
  9018  001408  4A4F               	infsnz	___flmul@temp^0,f,c
  9019  00140A  2A50               	incf	(___flmul@temp+1)^0,f,c
  9020  00140C                     l3613:
  9021  00140C  BE50               	btfsc	(___flmul@temp+1)^0,7,c
  9022  00140E  EF11  F00A         	goto	u4191
  9023  001412  5050               	movf	(___flmul@temp+1)^0,w,c
  9024  001414  E108               	bnz	u4190
  9025  001416  284F               	incf	___flmul@temp^0,w,c
  9026  001418  A0D8               	btfss	status,0,c
  9027  00141A  EF11  F00A         	goto	u4191
  9028  00141E  EF13  F00A         	goto	u4190
  9029  001422                     u4191:
  9030  001422  EF1D  F00A         	goto	l3617
  9031  001426                     u4190:
  9032  001426  0E00               	movlw	0
  9033  001428  6E4B               	movwf	___flmul@prod^0,c
  9034  00142A  0E00               	movlw	0
  9035  00142C  6E4C               	movwf	(___flmul@prod+1)^0,c
  9036  00142E  0E80               	movlw	128
  9037  001430  6E4D               	movwf	(___flmul@prod+2)^0,c
  9038  001432  0E7F               	movlw	127
  9039  001434  6E4E               	movwf	(___flmul@prod+3)^0,c
  9040  001436  EF4B  F00A         	goto	l3629
  9041  00143A                     l3617:
  9042  00143A  BE50               	btfsc	(___flmul@temp+1)^0,7,c
  9043  00143C  EF2A  F00A         	goto	u4200
  9044  001440  5050               	movf	(___flmul@temp+1)^0,w,c
  9045  001442  E106               	bnz	u4201
  9046  001444  044F               	decf	___flmul@temp^0,w,c
  9047  001446  B0D8               	btfsc	status,0,c
  9048  001448  EF28  F00A         	goto	u4201
  9049  00144C  EF2A  F00A         	goto	u4200
  9050  001450                     u4201:
  9051  001450  EF36  F00A         	goto	l1151
  9052  001454                     u4200:
  9053  001454  0E00               	movlw	0
  9054  001456  6E4B               	movwf	___flmul@prod^0,c
  9055  001458  0E00               	movlw	0
  9056  00145A  6E4C               	movwf	(___flmul@prod+1)^0,c
  9057  00145C  0E00               	movlw	0
  9058  00145E  6E4D               	movwf	(___flmul@prod+2)^0,c
  9059  001460  0E00               	movlw	0
  9060  001462  6E4E               	movwf	(___flmul@prod+3)^0,c
  9061  001464  0E00               	movlw	0
  9062  001466  6E44               	movwf	___flmul@sign^0,c
  9063  001468  EF4B  F00A         	goto	l3629
  9064  00146C                     l1151:
  9065  00146C  C04F  F04A         	movff	___flmul@temp,___flmul@bexp
  9066  001470  0EFF               	movlw	255
  9067  001472  164B               	andwf	___flmul@prod^0,f,c
  9068  001474  0EFF               	movlw	255
  9069  001476  164C               	andwf	(___flmul@prod+1)^0,f,c
  9070  001478  0E7F               	movlw	127
  9071  00147A  164D               	andwf	(___flmul@prod+2)^0,f,c
  9072  00147C  0E00               	movlw	0
  9073  00147E  164E               	andwf	(___flmul@prod+3)^0,f,c
  9074  001480  A04A               	btfss	___flmul@bexp^0,0,c
  9075  001482  EF45  F00A         	goto	u4211
  9076  001486  EF47  F00A         	goto	u4210
  9077  00148A                     u4211:
  9078  00148A  EF48  F00A         	goto	l3627
  9079  00148E                     u4210:
  9080  00148E  8E4D               	bsf	(___flmul@prod+2)^0,7,c
  9081  001490                     l3627:
  9082  001490  90D8               	bcf	status,0,c
  9083  001492  304A               	rrcf	___flmul@bexp^0,w,c
  9084  001494  6E4E               	movwf	(___flmul@prod+3)^0,c
  9085  001496                     l3629:
  9086  001496  5044               	movf	___flmul@sign^0,w,c
  9087  001498  124E               	iorwf	(___flmul@prod+3)^0,f,c
  9088  00149A  C04B  F038         	movff	___flmul@prod,?___flmul
  9089  00149E  C04C  F039         	movff	___flmul@prod+1,?___flmul+1
  9090  0014A2  C04D  F03A         	movff	___flmul@prod+2,?___flmul+2
  9091  0014A6  C04E  F03B         	movff	___flmul@prod+3,?___flmul+3
  9092  0014AA                     l1138:
  9093  0014AA  0012               	return		;funcret
  9094  0014AC                     __end_of___flmul:
  9095                           	callstack 0
  9096                           
  9097 ;; *************** function ___fldiv *****************
  9098 ;; Defined at:
  9099 ;;		line 11 in file "C:\Program Files\Microchip\xc8\v2.32\pic\sources\c99\common\sprcdiv.c"
  9100 ;; Parameters:    Size  Location     Type
  9101 ;;  b               4   14[COMRAM] unsigned char 
  9102 ;;  a               4   18[COMRAM] unsigned char 
  9103 ;; Auto vars:     Size  Location     Type
  9104 ;;  grs             4   33[COMRAM] unsigned long 
  9105 ;;  rem             4   26[COMRAM] unsigned long 
  9106 ;;  new_exp         2   31[COMRAM] short 
  9107 ;;  aexp            1   38[COMRAM] unsigned char 
  9108 ;;  bexp            1   37[COMRAM] unsigned char 
  9109 ;;  sign            1   30[COMRAM] unsigned char 
  9110 ;; Return value:  Size  Location     Type
  9111 ;;                  4   14[COMRAM] unsigned char 
  9112 ;; Registers used:
  9113 ;;		wreg, status,2, status,0
  9114 ;; Tracked objects:
  9115 ;;		On entry : 0/0
  9116 ;;		On exit  : 0/0
  9117 ;;		Unchanged: 0/0
  9118 ;; Data sizes:     COMRAM   BANK0   BANK1   BANK2   BANK3   BANK4   BANK5
  9119 ;;      Params:         8       0       0       0       0       0       0
  9120 ;;      Locals:        13       0       0       0       0       0       0
  9121 ;;      Temps:          4       0       0       0       0       0       0
  9122 ;;      Totals:        25       0       0       0       0       0       0
  9123 ;;Total ram usage:       25 bytes
  9124 ;; Hardware stack levels used: 1
  9125 ;; This function calls:
  9126 ;;		Nothing
  9127 ;; This function is called by:
  9128 ;;		_comandos
  9129 ;;		_ssdHeat
  9130 ;; This function uses a non-reentrant model
  9131 ;;
  9132                           
  9133                           	psect	text51
  9134  0014AC                     __ptext51:
  9135                           	callstack 0
  9136  0014AC                     ___fldiv:
  9137                           	callstack 29
  9138  0014AC  5012               	movf	(___fldiv@b+3)^0,w,c
  9139  0014AE  0B80               	andlw	128
  9140  0014B0  6E1F               	movwf	___fldiv@sign^0,c
  9141  0014B2  5012               	movf	(___fldiv@b+3)^0,w,c
  9142  0014B4  2412               	addwf	(___fldiv@b+3)^0,w,c
  9143  0014B6  6E26               	movwf	___fldiv@bexp^0,c
  9144  0014B8  AE11               	btfss	(___fldiv@b+2)^0,7,c
  9145  0014BA  EF61  F00A         	goto	u3801
  9146  0014BE  EF63  F00A         	goto	u3800
  9147  0014C2                     u3801:
  9148  0014C2  EF64  F00A         	goto	l3373
  9149  0014C6                     u3800:
  9150  0014C6  8026               	bsf	___fldiv@bexp^0,0,c
  9151  0014C8                     l3373:
  9152  0014C8  5026               	movf	___fldiv@bexp^0,w,c
  9153  0014CA  B4D8               	btfsc	status,2,c
  9154  0014CC  EF6A  F00A         	goto	u3811
  9155  0014D0  EF6C  F00A         	goto	u3810
  9156  0014D4                     u3811:
  9157  0014D4  EF81  F00A         	goto	l3383
  9158  0014D8                     u3810:
  9159  0014D8  2826               	incf	___fldiv@bexp^0,w,c
  9160  0014DA  A4D8               	btfss	status,2,c
  9161  0014DC  EF72  F00A         	goto	u3821
  9162  0014E0  EF74  F00A         	goto	u3820
  9163  0014E4                     u3821:
  9164  0014E4  EF7C  F00A         	goto	l3379
  9165  0014E8                     u3820:
  9166  0014E8  0E00               	movlw	0
  9167  0014EA  6E0F               	movwf	___fldiv@b^0,c
  9168  0014EC  0E00               	movlw	0
  9169  0014EE  6E10               	movwf	(___fldiv@b+1)^0,c
  9170  0014F0  0E00               	movlw	0
  9171  0014F2  6E11               	movwf	(___fldiv@b+2)^0,c
  9172  0014F4  0E00               	movlw	0
  9173  0014F6  6E12               	movwf	(___fldiv@b+3)^0,c
  9174  0014F8                     l3379:
  9175  0014F8  8E11               	bsf	(___fldiv@b+2)^0,7,c
  9176  0014FA  0E00               	movlw	0
  9177  0014FC  6E12               	movwf	(___fldiv@b+3)^0,c
  9178  0014FE  EF89  F00A         	goto	l3385
  9179  001502                     l3383:
  9180  001502  0E00               	movlw	0
  9181  001504  6E0F               	movwf	___fldiv@b^0,c
  9182  001506  0E00               	movlw	0
  9183  001508  6E10               	movwf	(___fldiv@b+1)^0,c
  9184  00150A  0E00               	movlw	0
  9185  00150C  6E11               	movwf	(___fldiv@b+2)^0,c
  9186  00150E  0E00               	movlw	0
  9187  001510  6E12               	movwf	(___fldiv@b+3)^0,c
  9188  001512                     l3385:
  9189  001512  5016               	movf	(___fldiv@a+3)^0,w,c
  9190  001514  0B80               	andlw	128
  9191  001516  1A1F               	xorwf	___fldiv@sign^0,f,c
  9192  001518  5016               	movf	(___fldiv@a+3)^0,w,c
  9193  00151A  2416               	addwf	(___fldiv@a+3)^0,w,c
  9194  00151C  6E27               	movwf	___fldiv@aexp^0,c
  9195  00151E  AE15               	btfss	(___fldiv@a+2)^0,7,c
  9196  001520  EF94  F00A         	goto	u3831
  9197  001524  EF96  F00A         	goto	u3830
  9198  001528                     u3831:
  9199  001528  EF97  F00A         	goto	l3393
  9200  00152C                     u3830:
  9201  00152C  8027               	bsf	___fldiv@aexp^0,0,c
  9202  00152E                     l3393:
  9203  00152E  5027               	movf	___fldiv@aexp^0,w,c
  9204  001530  B4D8               	btfsc	status,2,c
  9205  001532  EF9D  F00A         	goto	u3841
  9206  001536  EF9F  F00A         	goto	u3840
  9207  00153A                     u3841:
  9208  00153A  EFB4  F00A         	goto	l3403
  9209  00153E                     u3840:
  9210  00153E  2827               	incf	___fldiv@aexp^0,w,c
  9211  001540  A4D8               	btfss	status,2,c
  9212  001542  EFA5  F00A         	goto	u3851
  9213  001546  EFA7  F00A         	goto	u3850
  9214  00154A                     u3851:
  9215  00154A  EFAF  F00A         	goto	l3399
  9216  00154E                     u3850:
  9217  00154E  0E00               	movlw	0
  9218  001550  6E13               	movwf	___fldiv@a^0,c
  9219  001552  0E00               	movlw	0
  9220  001554  6E14               	movwf	(___fldiv@a+1)^0,c
  9221  001556  0E00               	movlw	0
  9222  001558  6E15               	movwf	(___fldiv@a+2)^0,c
  9223  00155A  0E00               	movlw	0
  9224  00155C  6E16               	movwf	(___fldiv@a+3)^0,c
  9225  00155E                     l3399:
  9226  00155E  8E15               	bsf	(___fldiv@a+2)^0,7,c
  9227  001560  0E00               	movlw	0
  9228  001562  6E16               	movwf	(___fldiv@a+3)^0,c
  9229  001564  EFBC  F00A         	goto	l3405
  9230  001568                     l3403:
  9231  001568  0E00               	movlw	0
  9232  00156A  6E13               	movwf	___fldiv@a^0,c
  9233  00156C  0E00               	movlw	0
  9234  00156E  6E14               	movwf	(___fldiv@a+1)^0,c
  9235  001570  0E00               	movlw	0
  9236  001572  6E15               	movwf	(___fldiv@a+2)^0,c
  9237  001574  0E00               	movlw	0
  9238  001576  6E16               	movwf	(___fldiv@a+3)^0,c
  9239  001578                     l3405:
  9240  001578  5013               	movf	___fldiv@a^0,w,c
  9241  00157A  1014               	iorwf	(___fldiv@a+1)^0,w,c
  9242  00157C  1015               	iorwf	(___fldiv@a+2)^0,w,c
  9243  00157E  1016               	iorwf	(___fldiv@a+3)^0,w,c
  9244  001580  A4D8               	btfss	status,2,c
  9245  001582  EFC5  F00A         	goto	u3861
  9246  001586  EFC7  F00A         	goto	u3860
  9247  00158A                     u3861:
  9248  00158A  EFDF  F00A         	goto	l3417
  9249  00158E                     u3860:
  9250  00158E  0E00               	movlw	0
  9251  001590  6E0F               	movwf	___fldiv@b^0,c
  9252  001592  0E00               	movlw	0
  9253  001594  6E10               	movwf	(___fldiv@b+1)^0,c
  9254  001596  0E00               	movlw	0
  9255  001598  6E11               	movwf	(___fldiv@b+2)^0,c
  9256  00159A  0E00               	movlw	0
  9257  00159C  6E12               	movwf	(___fldiv@b+3)^0,c
  9258  00159E  0E80               	movlw	128
  9259  0015A0  1211               	iorwf	(___fldiv@b+2)^0,f,c
  9260  0015A2  0E7F               	movlw	127
  9261  0015A4  1212               	iorwf	(___fldiv@b+3)^0,f,c
  9262  0015A6                     l3411:
  9263  0015A6  501F               	movf	___fldiv@sign^0,w,c
  9264  0015A8  1212               	iorwf	(___fldiv@b+3)^0,f,c
  9265  0015AA  C00F  F00F         	movff	___fldiv@b,?___fldiv
  9266  0015AE  C010  F010         	movff	___fldiv@b+1,?___fldiv+1
  9267  0015B2  C011  F011         	movff	___fldiv@b+2,?___fldiv+2
  9268  0015B6  C012  F012         	movff	___fldiv@b+3,?___fldiv+3
  9269  0015BA  EF22  F00C         	goto	l1102
  9270  0015BE                     l3417:
  9271  0015BE  5026               	movf	___fldiv@bexp^0,w,c
  9272  0015C0  A4D8               	btfss	status,2,c
  9273  0015C2  EFE5  F00A         	goto	u3871
  9274  0015C6  EFE7  F00A         	goto	u3870
  9275  0015CA                     u3871:
  9276  0015CA  EFF1  F00A         	goto	l3425
  9277  0015CE                     u3870:
  9278  0015CE  0E00               	movlw	0
  9279  0015D0  6E0F               	movwf	?___fldiv^0,c
  9280  0015D2  0E00               	movlw	0
  9281  0015D4  6E10               	movwf	(?___fldiv+1)^0,c
  9282  0015D6  0E00               	movlw	0
  9283  0015D8  6E11               	movwf	(?___fldiv+2)^0,c
  9284  0015DA  0E00               	movlw	0
  9285  0015DC  6E12               	movwf	(?___fldiv+3)^0,c
  9286  0015DE  EF22  F00C         	goto	l1102
  9287  0015E2                     l3425:
  9288  0015E2  5027               	movf	___fldiv@aexp^0,w,c
  9289  0015E4  C026  F017         	movff	___fldiv@bexp,??___fldiv
  9290  0015E8  6A18               	clrf	(??___fldiv+1)^0,c
  9291  0015EA  5E17               	subwf	??___fldiv^0,f,c
  9292  0015EC  0E00               	movlw	0
  9293  0015EE  5A18               	subwfb	(??___fldiv+1)^0,f,c
  9294  0015F0  0E7F               	movlw	127
  9295  0015F2  2417               	addwf	??___fldiv^0,w,c
  9296  0015F4  6E20               	movwf	___fldiv@new_exp^0,c
  9297  0015F6  0E00               	movlw	0
  9298  0015F8  2018               	addwfc	(??___fldiv+1)^0,w,c
  9299  0015FA  6E21               	movwf	(___fldiv@new_exp+1)^0,c
  9300  0015FC  C00F  F01B         	movff	___fldiv@b,___fldiv@rem
  9301  001600  C010  F01C         	movff	___fldiv@b+1,___fldiv@rem+1
  9302  001604  C011  F01D         	movff	___fldiv@b+2,___fldiv@rem+2
  9303  001608  C012  F01E         	movff	___fldiv@b+3,___fldiv@rem+3
  9304  00160C  0E00               	movlw	0
  9305  00160E  6E0F               	movwf	___fldiv@b^0,c
  9306  001610  0E00               	movlw	0
  9307  001612  6E10               	movwf	(___fldiv@b+1)^0,c
  9308  001614  0E00               	movlw	0
  9309  001616  6E11               	movwf	(___fldiv@b+2)^0,c
  9310  001618  0E00               	movlw	0
  9311  00161A  6E12               	movwf	(___fldiv@b+3)^0,c
  9312  00161C  0E00               	movlw	0
  9313  00161E  6E22               	movwf	___fldiv@grs^0,c
  9314  001620  0E00               	movlw	0
  9315  001622  6E23               	movwf	(___fldiv@grs+1)^0,c
  9316  001624  0E00               	movlw	0
  9317  001626  6E24               	movwf	(___fldiv@grs+2)^0,c
  9318  001628  0E00               	movlw	0
  9319  00162A  6E25               	movwf	(___fldiv@grs+3)^0,c
  9320  00162C  0E00               	movlw	0
  9321  00162E  6E27               	movwf	___fldiv@aexp^0,c
  9322  001630  EF52  F00B         	goto	l1104
  9323  001634                     l3435:
  9324  001634  5027               	movf	___fldiv@aexp^0,w,c
  9325  001636  B4D8               	btfsc	status,2,c
  9326  001638  EF20  F00B         	goto	u3881
  9327  00163C  EF22  F00B         	goto	u3880
  9328  001640                     u3881:
  9329  001640  EF39  F00B         	goto	l3443
  9330  001644                     u3880:
  9331  001644  90D8               	bcf	status,0,c
  9332  001646  361B               	rlcf	___fldiv@rem^0,f,c
  9333  001648  361C               	rlcf	(___fldiv@rem+1)^0,f,c
  9334  00164A  361D               	rlcf	(___fldiv@rem+2)^0,f,c
  9335  00164C  361E               	rlcf	(___fldiv@rem+3)^0,f,c
  9336  00164E  90D8               	bcf	status,0,c
  9337  001650  360F               	rlcf	___fldiv@b^0,f,c
  9338  001652  3610               	rlcf	(___fldiv@b+1)^0,f,c
  9339  001654  3611               	rlcf	(___fldiv@b+2)^0,f,c
  9340  001656  3612               	rlcf	(___fldiv@b+3)^0,f,c
  9341  001658  AE25               	btfss	(___fldiv@grs+3)^0,7,c
  9342  00165A  EF31  F00B         	goto	u3891
  9343  00165E  EF33  F00B         	goto	u3890
  9344  001662                     u3891:
  9345  001662  EF34  F00B         	goto	l1107
  9346  001666                     u3890:
  9347  001666  800F               	bsf	___fldiv@b^0,0,c
  9348  001668                     l1107:
  9349  001668  90D8               	bcf	status,0,c
  9350  00166A  3622               	rlcf	___fldiv@grs^0,f,c
  9351  00166C  3623               	rlcf	(___fldiv@grs+1)^0,f,c
  9352  00166E  3624               	rlcf	(___fldiv@grs+2)^0,f,c
  9353  001670  3625               	rlcf	(___fldiv@grs+3)^0,f,c
  9354  001672                     l3443:
  9355  001672  5013               	movf	___fldiv@a^0,w,c
  9356  001674  5C1B               	subwf	___fldiv@rem^0,w,c
  9357  001676  5014               	movf	(___fldiv@a+1)^0,w,c
  9358  001678  581C               	subwfb	(___fldiv@rem+1)^0,w,c
  9359  00167A  5015               	movf	(___fldiv@a+2)^0,w,c
  9360  00167C  581D               	subwfb	(___fldiv@rem+2)^0,w,c
  9361  00167E  5016               	movf	(___fldiv@a+3)^0,w,c
  9362  001680  581E               	subwfb	(___fldiv@rem+3)^0,w,c
  9363  001682  A0D8               	btfss	status,0,c
  9364  001684  EF46  F00B         	goto	u3901
  9365  001688  EF48  F00B         	goto	u3900
  9366  00168C                     u3901:
  9367  00168C  EF51  F00B         	goto	l3449
  9368  001690                     u3900:
  9369  001690  8C25               	bsf	(___fldiv@grs+3)^0,6,c
  9370  001692  5013               	movf	___fldiv@a^0,w,c
  9371  001694  5E1B               	subwf	___fldiv@rem^0,f,c
  9372  001696  5014               	movf	(___fldiv@a+1)^0,w,c
  9373  001698  5A1C               	subwfb	(___fldiv@rem+1)^0,f,c
  9374  00169A  5015               	movf	(___fldiv@a+2)^0,w,c
  9375  00169C  5A1D               	subwfb	(___fldiv@rem+2)^0,f,c
  9376  00169E  5016               	movf	(___fldiv@a+3)^0,w,c
  9377  0016A0  5A1E               	subwfb	(___fldiv@rem+3)^0,f,c
  9378  0016A2                     l3449:
  9379  0016A2  2A27               	incf	___fldiv@aexp^0,f,c
  9380  0016A4                     l1104:
  9381  0016A4  0E19               	movlw	25
  9382  0016A6  6427               	cpfsgt	___fldiv@aexp^0,c
  9383  0016A8  EF58  F00B         	goto	u3911
  9384  0016AC  EF5A  F00B         	goto	u3910
  9385  0016B0                     u3911:
  9386  0016B0  EF1A  F00B         	goto	l3435
  9387  0016B4                     u3910:
  9388  0016B4  501B               	movf	___fldiv@rem^0,w,c
  9389  0016B6  101C               	iorwf	(___fldiv@rem+1)^0,w,c
  9390  0016B8  101D               	iorwf	(___fldiv@rem+2)^0,w,c
  9391  0016BA  101E               	iorwf	(___fldiv@rem+3)^0,w,c
  9392  0016BC  B4D8               	btfsc	status,2,c
  9393  0016BE  EF63  F00B         	goto	u3921
  9394  0016C2  EF65  F00B         	goto	u3920
  9395  0016C6                     u3921:
  9396  0016C6  EF7D  F00B         	goto	l3461
  9397  0016CA                     u3920:
  9398  0016CA  8022               	bsf	___fldiv@grs^0,0,c
  9399  0016CC  EF7D  F00B         	goto	l3461
  9400  0016D0                     l3455:
  9401  0016D0  90D8               	bcf	status,0,c
  9402  0016D2  360F               	rlcf	___fldiv@b^0,f,c
  9403  0016D4  3610               	rlcf	(___fldiv@b+1)^0,f,c
  9404  0016D6  3611               	rlcf	(___fldiv@b+2)^0,f,c
  9405  0016D8  3612               	rlcf	(___fldiv@b+3)^0,f,c
  9406  0016DA  AE25               	btfss	(___fldiv@grs+3)^0,7,c
  9407  0016DC  EF72  F00B         	goto	u3931
  9408  0016E0  EF74  F00B         	goto	u3930
  9409  0016E4                     u3931:
  9410  0016E4  EF75  F00B         	goto	l1113
  9411  0016E8                     u3930:
  9412  0016E8  800F               	bsf	___fldiv@b^0,0,c
  9413  0016EA                     l1113:
  9414  0016EA  90D8               	bcf	status,0,c
  9415  0016EC  3622               	rlcf	___fldiv@grs^0,f,c
  9416  0016EE  3623               	rlcf	(___fldiv@grs+1)^0,f,c
  9417  0016F0  3624               	rlcf	(___fldiv@grs+2)^0,f,c
  9418  0016F2  3625               	rlcf	(___fldiv@grs+3)^0,f,c
  9419  0016F4  0620               	decf	___fldiv@new_exp^0,f,c
  9420  0016F6  A0D8               	btfss	status,0,c
  9421  0016F8  0621               	decf	(___fldiv@new_exp+1)^0,f,c
  9422  0016FA                     l3461:
  9423  0016FA  AE11               	btfss	(___fldiv@b+2)^0,7,c
  9424  0016FC  EF82  F00B         	goto	u3941
  9425  001700  EF84  F00B         	goto	u3940
  9426  001704                     u3941:
  9427  001704  EF68  F00B         	goto	l3455
  9428  001708                     u3940:
  9429  001708  0E00               	movlw	0
  9430  00170A  6E27               	movwf	___fldiv@aexp^0,c
  9431  00170C  AE25               	btfss	(___fldiv@grs+3)^0,7,c
  9432  00170E  EF8B  F00B         	goto	u3951
  9433  001712  EF8D  F00B         	goto	u3950
  9434  001716                     u3951:
  9435  001716  EFB1  F00B         	goto	l1115
  9436  00171A                     u3950:
  9437  00171A  0EFF               	movlw	255
  9438  00171C  1422               	andwf	___fldiv@grs^0,w,c
  9439  00171E  6E17               	movwf	??___fldiv^0,c
  9440  001720  0EFF               	movlw	255
  9441  001722  1423               	andwf	(___fldiv@grs+1)^0,w,c
  9442  001724  6E18               	movwf	(??___fldiv+1)^0,c
  9443  001726  0EFF               	movlw	255
  9444  001728  1424               	andwf	(___fldiv@grs+2)^0,w,c
  9445  00172A  6E19               	movwf	(??___fldiv+2)^0,c
  9446  00172C  0E7F               	movlw	127
  9447  00172E  1425               	andwf	(___fldiv@grs+3)^0,w,c
  9448  001730  6E1A               	movwf	(??___fldiv+3)^0,c
  9449  001732  5017               	movf	??___fldiv^0,w,c
  9450  001734  1018               	iorwf	(??___fldiv+1)^0,w,c
  9451  001736  1019               	iorwf	(??___fldiv+2)^0,w,c
  9452  001738  101A               	iorwf	(??___fldiv+3)^0,w,c
  9453  00173A  B4D8               	btfsc	status,2,c
  9454  00173C  EFA2  F00B         	goto	u3961
  9455  001740  EFA4  F00B         	goto	u3960
  9456  001744                     u3961:
  9457  001744  EFA8  F00B         	goto	l1116
  9458  001748                     u3960:
  9459  001748                     l3469:
  9460  001748  0E01               	movlw	1
  9461  00174A  6E27               	movwf	___fldiv@aexp^0,c
  9462  00174C  EFB1  F00B         	goto	l1115
  9463  001750                     l1116:
  9464  001750  A00F               	btfss	___fldiv@b^0,0,c
  9465  001752  EFAD  F00B         	goto	u3971
  9466  001756  EFAF  F00B         	goto	u3970
  9467  00175A                     u3971:
  9468  00175A  EFB1  F00B         	goto	l1115
  9469  00175E                     u3970:
  9470  00175E  EFA4  F00B         	goto	l3469
  9471  001762                     l1115:
  9472  001762  5027               	movf	___fldiv@aexp^0,w,c
  9473  001764  B4D8               	btfsc	status,2,c
  9474  001766  EFB7  F00B         	goto	u3981
  9475  00176A  EFB9  F00B         	goto	u3980
  9476  00176E                     u3981:
  9477  00176E  EFDD  F00B         	goto	l3481
  9478  001772                     u3980:
  9479  001772  0E01               	movlw	1
  9480  001774  260F               	addwf	___fldiv@b^0,f,c
  9481  001776  0E00               	movlw	0
  9482  001778  2210               	addwfc	(___fldiv@b+1)^0,f,c
  9483  00177A  2211               	addwfc	(___fldiv@b+2)^0,f,c
  9484  00177C  2212               	addwfc	(___fldiv@b+3)^0,f,c
  9485  00177E  A012               	btfss	(___fldiv@b+3)^0,0,c
  9486  001780  EFC4  F00B         	goto	u3991
  9487  001784  EFC6  F00B         	goto	u3990
  9488  001788                     u3991:
  9489  001788  EFDD  F00B         	goto	l3481
  9490  00178C                     u3990:
  9491  00178C  C00F  F017         	movff	___fldiv@b,??___fldiv
  9492  001790  C010  F018         	movff	___fldiv@b+1,??___fldiv+1
  9493  001794  C011  F019         	movff	___fldiv@b+2,??___fldiv+2
  9494  001798  C012  F01A         	movff	___fldiv@b+3,??___fldiv+3
  9495  00179C  341A               	rlcf	(??___fldiv+3)^0,w,c
  9496  00179E  321A               	rrcf	(??___fldiv+3)^0,f,c
  9497  0017A0  3219               	rrcf	(??___fldiv+2)^0,f,c
  9498  0017A2  3218               	rrcf	(??___fldiv+1)^0,f,c
  9499  0017A4  3217               	rrcf	??___fldiv^0,f,c
  9500  0017A6  C017  F00F         	movff	??___fldiv,___fldiv@b
  9501  0017AA  C018  F010         	movff	??___fldiv+1,___fldiv@b+1
  9502  0017AE  C019  F011         	movff	??___fldiv+2,___fldiv@b+2
  9503  0017B2  C01A  F012         	movff	??___fldiv+3,___fldiv@b+3
  9504  0017B6  4A20               	infsnz	___fldiv@new_exp^0,f,c
  9505  0017B8  2A21               	incf	(___fldiv@new_exp+1)^0,f,c
  9506  0017BA                     l3481:
  9507  0017BA  BE21               	btfsc	(___fldiv@new_exp+1)^0,7,c
  9508  0017BC  EFE8  F00B         	goto	u4001
  9509  0017C0  5021               	movf	(___fldiv@new_exp+1)^0,w,c
  9510  0017C2  E108               	bnz	u4000
  9511  0017C4  2820               	incf	___fldiv@new_exp^0,w,c
  9512  0017C6  A0D8               	btfss	status,0,c
  9513  0017C8  EFE8  F00B         	goto	u4001
  9514  0017CC  EFEA  F00B         	goto	u4000
  9515  0017D0                     u4001:
  9516  0017D0  EFF5  F00B         	goto	l3485
  9517  0017D4                     u4000:
  9518  0017D4  0E00               	movlw	0
  9519  0017D6  6E21               	movwf	(___fldiv@new_exp+1)^0,c
  9520  0017D8  6820               	setf	___fldiv@new_exp^0,c
  9521  0017DA  0E00               	movlw	0
  9522  0017DC  6E0F               	movwf	___fldiv@b^0,c
  9523  0017DE  0E00               	movlw	0
  9524  0017E0  6E10               	movwf	(___fldiv@b+1)^0,c
  9525  0017E2  0E00               	movlw	0
  9526  0017E4  6E11               	movwf	(___fldiv@b+2)^0,c
  9527  0017E6  0E00               	movlw	0
  9528  0017E8  6E12               	movwf	(___fldiv@b+3)^0,c
  9529  0017EA                     l3485:
  9530  0017EA  BE21               	btfsc	(___fldiv@new_exp+1)^0,7,c
  9531  0017EC  EF02  F00C         	goto	u4010
  9532  0017F0  5021               	movf	(___fldiv@new_exp+1)^0,w,c
  9533  0017F2  E106               	bnz	u4011
  9534  0017F4  0420               	decf	___fldiv@new_exp^0,w,c
  9535  0017F6  B0D8               	btfsc	status,0,c
  9536  0017F8  EF00  F00C         	goto	u4011
  9537  0017FC  EF02  F00C         	goto	u4010
  9538  001800                     u4011:
  9539  001800  EF10  F00C         	goto	l3489
  9540  001804                     u4010:
  9541  001804  0E00               	movlw	0
  9542  001806  6E21               	movwf	(___fldiv@new_exp+1)^0,c
  9543  001808  0E00               	movlw	0
  9544  00180A  6E20               	movwf	___fldiv@new_exp^0,c
  9545  00180C  0E00               	movlw	0
  9546  00180E  6E0F               	movwf	___fldiv@b^0,c
  9547  001810  0E00               	movlw	0
  9548  001812  6E10               	movwf	(___fldiv@b+1)^0,c
  9549  001814  0E00               	movlw	0
  9550  001816  6E11               	movwf	(___fldiv@b+2)^0,c
  9551  001818  0E00               	movlw	0
  9552  00181A  6E12               	movwf	(___fldiv@b+3)^0,c
  9553  00181C  0E00               	movlw	0
  9554  00181E  6E1F               	movwf	___fldiv@sign^0,c
  9555  001820                     l3489:
  9556  001820  C020  F026         	movff	___fldiv@new_exp,___fldiv@bexp
  9557  001824  A026               	btfss	___fldiv@bexp^0,0,c
  9558  001826  EF17  F00C         	goto	u4021
  9559  00182A  EF19  F00C         	goto	u4020
  9560  00182E                     u4021:
  9561  00182E  EF1C  F00C         	goto	l3495
  9562  001832                     u4020:
  9563  001832  8E11               	bsf	(___fldiv@b+2)^0,7,c
  9564  001834  EF1D  F00C         	goto	l3497
  9565  001838                     l3495:
  9566  001838  9E11               	bcf	(___fldiv@b+2)^0,7,c
  9567  00183A                     l3497:
  9568  00183A  90D8               	bcf	status,0,c
  9569  00183C  3026               	rrcf	___fldiv@bexp^0,w,c
  9570  00183E  6E12               	movwf	(___fldiv@b+3)^0,c
  9571  001840  EFD3  F00A         	goto	l3411
  9572  001844                     l1102:
  9573  001844  0012               	return		;funcret
  9574  001846                     __end_of___fldiv:
  9575                           	callstack 0
  9576                           
  9577 ;; *************** function _adcInit *****************
  9578 ;; Defined at:
  9579 ;;		line 25 in file "adc.c"
  9580 ;; Parameters:    Size  Location     Type
  9581 ;;		None
  9582 ;; Auto vars:     Size  Location     Type
  9583 ;;		None
  9584 ;; Return value:  Size  Location     Type
  9585 ;;                  1    wreg      void 
  9586 ;; Registers used:
  9587 ;;		wreg, status,2, status,0, cstack
  9588 ;; Tracked objects:
  9589 ;;		On entry : 0/0
  9590 ;;		On exit  : 0/0
  9591 ;;		Unchanged: 0/0
  9592 ;; Data sizes:     COMRAM   BANK0   BANK1   BANK2   BANK3   BANK4   BANK5
  9593 ;;      Params:         0       0       0       0       0       0       0
  9594 ;;      Locals:         0       0       0       0       0       0       0
  9595 ;;      Temps:          0       0       0       0       0       0       0
  9596 ;;      Totals:         0       0       0       0       0       0       0
  9597 ;;Total ram usage:        0 bytes
  9598 ;; Hardware stack levels used: 1
  9599 ;; Hardware stack levels required when called: 1
  9600 ;; This function calls:
  9601 ;;		_pinMode
  9602 ;; This function is called by:
  9603 ;;		_main
  9604 ;; This function uses a non-reentrant model
  9605 ;;
  9606                           
  9607                           	psect	text52
  9608  0036E2                     __ptext52:
  9609                           	callstack 0
  9610  0036E2                     _adcInit:
  9611                           	callstack 29
  9612  0036E2                     
  9613                           ;adc.c: 27:     pinMode(PIN_A0, 1);
  9614  0036E2  0E00               	movlw	0
  9615  0036E4  6E02               	movwf	(pinMode@pin+1)^0,c
  9616  0036E6  0E00               	movlw	0
  9617  0036E8  6E01               	movwf	pinMode@pin^0,c
  9618  0036EA  0E00               	movlw	0
  9619  0036EC  6E04               	movwf	(pinMode@type+1)^0,c
  9620  0036EE  0E01               	movlw	1
  9621  0036F0  6E03               	movwf	pinMode@type^0,c
  9622  0036F2  EC23  F010         	call	_pinMode	;wreg free
  9623                           
  9624                           ;adc.c: 28:     pinMode(PIN_A1, 1);
  9625  0036F6  0E00               	movlw	0
  9626  0036F8  6E02               	movwf	(pinMode@pin+1)^0,c
  9627  0036FA  0E01               	movlw	1
  9628  0036FC  6E01               	movwf	pinMode@pin^0,c
  9629  0036FE  0E00               	movlw	0
  9630  003700  6E04               	movwf	(pinMode@type+1)^0,c
  9631  003702  0E01               	movlw	1
  9632  003704  6E03               	movwf	pinMode@type^0,c
  9633  003706  EC23  F010         	call	_pinMode	;wreg free
  9634                           
  9635                           ;adc.c: 29:     pinMode(PIN_A2, 1);
  9636  00370A  0E00               	movlw	0
  9637  00370C  6E02               	movwf	(pinMode@pin+1)^0,c
  9638  00370E  0E02               	movlw	2
  9639  003710  6E01               	movwf	pinMode@pin^0,c
  9640  003712  0E00               	movlw	0
  9641  003714  6E04               	movwf	(pinMode@type+1)^0,c
  9642  003716  0E01               	movlw	1
  9643  003718  6E03               	movwf	pinMode@type^0,c
  9644  00371A  EC23  F010         	call	_pinMode	;wreg free
  9645  00371E                     
  9646                           ;adc.c: 31:     ((ADCON0) |= (1<<(0)));
  9647  00371E  80C2               	bsf	194,0,c	;volatile
  9648  003720                     
  9649                           ;adc.c: 33:     ADCON1 = 0b00001100;
  9650  003720  0E0C               	movlw	12
  9651  003722  6EC1               	movwf	193,c	;volatile
  9652  003724                     
  9653                           ;adc.c: 34:     ADCON2 = 0b10101010;
  9654  003724  0EAA               	movlw	170
  9655  003726  6EC0               	movwf	192,c	;volatile
  9656  003728  0012               	return		;funcret
  9657  00372A                     __end_of_adcInit:
  9658                           	callstack 0
  9659                           
  9660 ;; *************** function _pinMode *****************
  9661 ;; Defined at:
  9662 ;;		line 54 in file "io.c"
  9663 ;; Parameters:    Size  Location     Type
  9664 ;;  pin             2    0[COMRAM] int 
  9665 ;;  type            2    2[COMRAM] int 
  9666 ;; Auto vars:     Size  Location     Type
  9667 ;;		None
  9668 ;; Return value:  Size  Location     Type
  9669 ;;                  1    wreg      void 
  9670 ;; Registers used:
  9671 ;;		wreg, status,2, status,0
  9672 ;; Tracked objects:
  9673 ;;		On entry : 0/0
  9674 ;;		On exit  : 0/0
  9675 ;;		Unchanged: 0/0
  9676 ;; Data sizes:     COMRAM   BANK0   BANK1   BANK2   BANK3   BANK4   BANK5
  9677 ;;      Params:         4       0       0       0       0       0       0
  9678 ;;      Locals:         0       0       0       0       0       0       0
  9679 ;;      Temps:          2       0       0       0       0       0       0
  9680 ;;      Totals:         6       0       0       0       0       0       0
  9681 ;;Total ram usage:        6 bytes
  9682 ;; Hardware stack levels used: 1
  9683 ;; This function calls:
  9684 ;;		Nothing
  9685 ;; This function is called by:
  9686 ;;		_kpInit
  9687 ;;		_lcdInit
  9688 ;;		_rgbInit
  9689 ;;		_soInit
  9690 ;;		_adcInit
  9691 ;;		_ssdInit
  9692 ;; This function uses a non-reentrant model
  9693 ;;
  9694                           
  9695                           	psect	text53
  9696  002046                     __ptext53:
  9697                           	callstack 0
  9698  002046                     _pinMode:
  9699                           	callstack 28
  9700  002046                     
  9701                           ;io.c: 56:     if(pin <8){
  9702  002046  BE02               	btfsc	(pinMode@pin+1)^0,7,c
  9703  002048  EF31  F010         	goto	u3540
  9704  00204C  5002               	movf	(pinMode@pin+1)^0,w,c
  9705  00204E  E107               	bnz	u3541
  9706  002050  0E08               	movlw	8
  9707  002052  5C01               	subwf	pinMode@pin^0,w,c
  9708  002054  B0D8               	btfsc	status,0,c
  9709  002056  EF2F  F010         	goto	u3541
  9710  00205A  EF31  F010         	goto	u3540
  9711  00205E                     u3541:
  9712  00205E  EF5B  F010         	goto	l3285
  9713  002062                     u3540:
  9714  002062                     
  9715                           ;io.c: 57:         if (type){ ((TRISA) |= (1<<(pin)));}
  9716  002062  5003               	movf	pinMode@type^0,w,c
  9717  002064  1004               	iorwf	(pinMode@type+1)^0,w,c
  9718  002066  B4D8               	btfsc	status,2,c
  9719  002068  EF38  F010         	goto	u3551
  9720  00206C  EF3A  F010         	goto	u3550
  9721  002070                     u3551:
  9722  002070  EF4A  F010         	goto	l3283
  9723  002074                     u3550:
  9724  002074  C001  F005         	movff	pinMode@pin,??_pinMode
  9725  002078  0E01               	movlw	1
  9726  00207A  6E06               	movwf	(??_pinMode+1)^0,c
  9727  00207C  2A05               	incf	??_pinMode^0,f,c
  9728  00207E  EF43  F010         	goto	u3564
  9729  002082                     u3565:
  9730  002082  90D8               	bcf	status,0,c
  9731  002084  3606               	rlcf	(??_pinMode+1)^0,f,c
  9732  002086                     u3564:
  9733  002086  2E05               	decfsz	??_pinMode^0,f,c
  9734  002088  EF41  F010         	goto	u3565
  9735  00208C  5006               	movf	(??_pinMode+1)^0,w,c
  9736  00208E  1292               	iorwf	146,f,c	;volatile
  9737  002090  EF49  F011         	goto	l290
  9738  002094                     l3283:
  9739  002094  C001  F005         	movff	pinMode@pin,??_pinMode
  9740  002098  0E01               	movlw	1
  9741  00209A  6E06               	movwf	(??_pinMode+1)^0,c
  9742  00209C  2A05               	incf	??_pinMode^0,f,c
  9743  00209E  EF53  F010         	goto	u3574
  9744  0020A2                     u3575:
  9745  0020A2  90D8               	bcf	status,0,c
  9746  0020A4  3606               	rlcf	(??_pinMode+1)^0,f,c
  9747  0020A6                     u3574:
  9748  0020A6  2E05               	decfsz	??_pinMode^0,f,c
  9749  0020A8  EF51  F010         	goto	u3575
  9750  0020AC  5006               	movf	(??_pinMode+1)^0,w,c
  9751  0020AE  0AFF               	xorlw	255
  9752  0020B0  1692               	andwf	146,f,c	;volatile
  9753  0020B2  EF49  F011         	goto	l290
  9754  0020B6                     l3285:
  9755  0020B6  BE02               	btfsc	(pinMode@pin+1)^0,7,c
  9756  0020B8  EF69  F010         	goto	u3580
  9757  0020BC  5002               	movf	(pinMode@pin+1)^0,w,c
  9758  0020BE  E107               	bnz	u3581
  9759  0020C0  0E10               	movlw	16
  9760  0020C2  5C01               	subwf	pinMode@pin^0,w,c
  9761  0020C4  B0D8               	btfsc	status,0,c
  9762  0020C6  EF67  F010         	goto	u3581
  9763  0020CA  EF69  F010         	goto	u3580
  9764  0020CE                     u3581:
  9765  0020CE  EF97  F010         	goto	l3293
  9766  0020D2                     u3580:
  9767  0020D2                     
  9768                           ;io.c: 60:         if (type){ ((TRISB) |= (1<<(pin-8)));}
  9769  0020D2  5003               	movf	pinMode@type^0,w,c
  9770  0020D4  1004               	iorwf	(pinMode@type+1)^0,w,c
  9771  0020D6  B4D8               	btfsc	status,2,c
  9772  0020D8  EF70  F010         	goto	u3591
  9773  0020DC  EF72  F010         	goto	u3590
  9774  0020E0                     u3591:
  9775  0020E0  EF84  F010         	goto	l3291
  9776  0020E4                     u3590:
  9777  0020E4  C001  F005         	movff	pinMode@pin,??_pinMode
  9778  0020E8  0EF8               	movlw	-8
  9779  0020EA  2605               	addwf	??_pinMode^0,f,c
  9780  0020EC  0E01               	movlw	1
  9781  0020EE  6E06               	movwf	(??_pinMode+1)^0,c
  9782  0020F0  2A05               	incf	??_pinMode^0,f,c
  9783  0020F2  EF7D  F010         	goto	u3604
  9784  0020F6                     u3605:
  9785  0020F6  90D8               	bcf	status,0,c
  9786  0020F8  3606               	rlcf	(??_pinMode+1)^0,f,c
  9787  0020FA                     u3604:
  9788  0020FA  2E05               	decfsz	??_pinMode^0,f,c
  9789  0020FC  EF7B  F010         	goto	u3605
  9790  002100  5006               	movf	(??_pinMode+1)^0,w,c
  9791  002102  1293               	iorwf	147,f,c	;volatile
  9792  002104  EF49  F011         	goto	l290
  9793  002108                     l3291:
  9794  002108  C001  F005         	movff	pinMode@pin,??_pinMode
  9795  00210C  0EF8               	movlw	-8
  9796  00210E  2605               	addwf	??_pinMode^0,f,c
  9797  002110  0E01               	movlw	1
  9798  002112  6E06               	movwf	(??_pinMode+1)^0,c
  9799  002114  2A05               	incf	??_pinMode^0,f,c
  9800  002116  EF8F  F010         	goto	u3614
  9801  00211A                     u3615:
  9802  00211A  90D8               	bcf	status,0,c
  9803  00211C  3606               	rlcf	(??_pinMode+1)^0,f,c
  9804  00211E                     u3614:
  9805  00211E  2E05               	decfsz	??_pinMode^0,f,c
  9806  002120  EF8D  F010         	goto	u3615
  9807  002124  5006               	movf	(??_pinMode+1)^0,w,c
  9808  002126  0AFF               	xorlw	255
  9809  002128  1693               	andwf	147,f,c	;volatile
  9810  00212A  EF49  F011         	goto	l290
  9811  00212E                     l3293:
  9812  00212E  BE02               	btfsc	(pinMode@pin+1)^0,7,c
  9813  002130  EFA5  F010         	goto	u3620
  9814  002134  5002               	movf	(pinMode@pin+1)^0,w,c
  9815  002136  E107               	bnz	u3621
  9816  002138  0E18               	movlw	24
  9817  00213A  5C01               	subwf	pinMode@pin^0,w,c
  9818  00213C  B0D8               	btfsc	status,0,c
  9819  00213E  EFA3  F010         	goto	u3621
  9820  002142  EFA5  F010         	goto	u3620
  9821  002146                     u3621:
  9822  002146  EFD3  F010         	goto	l3301
  9823  00214A                     u3620:
  9824  00214A                     
  9825                           ;io.c: 63:         if (type){ ((TRISC) |= (1<<(pin-16)));}
  9826  00214A  5003               	movf	pinMode@type^0,w,c
  9827  00214C  1004               	iorwf	(pinMode@type+1)^0,w,c
  9828  00214E  B4D8               	btfsc	status,2,c
  9829  002150  EFAC  F010         	goto	u3631
  9830  002154  EFAE  F010         	goto	u3630
  9831  002158                     u3631:
  9832  002158  EFC0  F010         	goto	l3299
  9833  00215C                     u3630:
  9834  00215C  C001  F005         	movff	pinMode@pin,??_pinMode
  9835  002160  0EF0               	movlw	-16
  9836  002162  2605               	addwf	??_pinMode^0,f,c
  9837  002164  0E01               	movlw	1
  9838  002166  6E06               	movwf	(??_pinMode+1)^0,c
  9839  002168  2A05               	incf	??_pinMode^0,f,c
  9840  00216A  EFB9  F010         	goto	u3644
  9841  00216E                     u3645:
  9842  00216E  90D8               	bcf	status,0,c
  9843  002170  3606               	rlcf	(??_pinMode+1)^0,f,c
  9844  002172                     u3644:
  9845  002172  2E05               	decfsz	??_pinMode^0,f,c
  9846  002174  EFB7  F010         	goto	u3645
  9847  002178  5006               	movf	(??_pinMode+1)^0,w,c
  9848  00217A  1294               	iorwf	148,f,c	;volatile
  9849  00217C  EF49  F011         	goto	l290
  9850  002180                     l3299:
  9851  002180  C001  F005         	movff	pinMode@pin,??_pinMode
  9852  002184  0EF0               	movlw	-16
  9853  002186  2605               	addwf	??_pinMode^0,f,c
  9854  002188  0E01               	movlw	1
  9855  00218A  6E06               	movwf	(??_pinMode+1)^0,c
  9856  00218C  2A05               	incf	??_pinMode^0,f,c
  9857  00218E  EFCB  F010         	goto	u3654
  9858  002192                     u3655:
  9859  002192  90D8               	bcf	status,0,c
  9860  002194  3606               	rlcf	(??_pinMode+1)^0,f,c
  9861  002196                     u3654:
  9862  002196  2E05               	decfsz	??_pinMode^0,f,c
  9863  002198  EFC9  F010         	goto	u3655
  9864  00219C  5006               	movf	(??_pinMode+1)^0,w,c
  9865  00219E  0AFF               	xorlw	255
  9866  0021A0  1694               	andwf	148,f,c	;volatile
  9867  0021A2  EF49  F011         	goto	l290
  9868  0021A6                     l3301:
  9869  0021A6  BE02               	btfsc	(pinMode@pin+1)^0,7,c
  9870  0021A8  EFE1  F010         	goto	u3660
  9871  0021AC  5002               	movf	(pinMode@pin+1)^0,w,c
  9872  0021AE  E107               	bnz	u3661
  9873  0021B0  0E20               	movlw	32
  9874  0021B2  5C01               	subwf	pinMode@pin^0,w,c
  9875  0021B4  B0D8               	btfsc	status,0,c
  9876  0021B6  EFDF  F010         	goto	u3661
  9877  0021BA  EFE1  F010         	goto	u3660
  9878  0021BE                     u3661:
  9879  0021BE  EF0F  F011         	goto	l3309
  9880  0021C2                     u3660:
  9881  0021C2                     
  9882                           ;io.c: 66:         if (type){ ((TRISD) |= (1<<(pin-24)));}
  9883  0021C2  5003               	movf	pinMode@type^0,w,c
  9884  0021C4  1004               	iorwf	(pinMode@type+1)^0,w,c
  9885  0021C6  B4D8               	btfsc	status,2,c
  9886  0021C8  EFE8  F010         	goto	u3671
  9887  0021CC  EFEA  F010         	goto	u3670
  9888  0021D0                     u3671:
  9889  0021D0  EFFC  F010         	goto	l3307
  9890  0021D4                     u3670:
  9891  0021D4  C001  F005         	movff	pinMode@pin,??_pinMode
  9892  0021D8  0EE8               	movlw	-24
  9893  0021DA  2605               	addwf	??_pinMode^0,f,c
  9894  0021DC  0E01               	movlw	1
  9895  0021DE  6E06               	movwf	(??_pinMode+1)^0,c
  9896  0021E0  2A05               	incf	??_pinMode^0,f,c
  9897  0021E2  EFF5  F010         	goto	u3684
  9898  0021E6                     u3685:
  9899  0021E6  90D8               	bcf	status,0,c
  9900  0021E8  3606               	rlcf	(??_pinMode+1)^0,f,c
  9901  0021EA                     u3684:
  9902  0021EA  2E05               	decfsz	??_pinMode^0,f,c
  9903  0021EC  EFF3  F010         	goto	u3685
  9904  0021F0  5006               	movf	(??_pinMode+1)^0,w,c
  9905  0021F2  1295               	iorwf	149,f,c	;volatile
  9906  0021F4  EF49  F011         	goto	l290
  9907  0021F8                     l3307:
  9908  0021F8  C001  F005         	movff	pinMode@pin,??_pinMode
  9909  0021FC  0EE8               	movlw	-24
  9910  0021FE  2605               	addwf	??_pinMode^0,f,c
  9911  002200  0E01               	movlw	1
  9912  002202  6E06               	movwf	(??_pinMode+1)^0,c
  9913  002204  2A05               	incf	??_pinMode^0,f,c
  9914  002206  EF07  F011         	goto	u3694
  9915  00220A                     u3695:
  9916  00220A  90D8               	bcf	status,0,c
  9917  00220C  3606               	rlcf	(??_pinMode+1)^0,f,c
  9918  00220E                     u3694:
  9919  00220E  2E05               	decfsz	??_pinMode^0,f,c
  9920  002210  EF05  F011         	goto	u3695
  9921  002214  5006               	movf	(??_pinMode+1)^0,w,c
  9922  002216  0AFF               	xorlw	255
  9923  002218  1695               	andwf	149,f,c	;volatile
  9924  00221A  EF49  F011         	goto	l290
  9925  00221E                     l3309:
  9926  00221E  BE02               	btfsc	(pinMode@pin+1)^0,7,c
  9927  002220  EF1D  F011         	goto	u3700
  9928  002224  5002               	movf	(pinMode@pin+1)^0,w,c
  9929  002226  E107               	bnz	u3701
  9930  002228  0E28               	movlw	40
  9931  00222A  5C01               	subwf	pinMode@pin^0,w,c
  9932  00222C  B0D8               	btfsc	status,0,c
  9933  00222E  EF1B  F011         	goto	u3701
  9934  002232  EF1D  F011         	goto	u3700
  9935  002236                     u3701:
  9936  002236  EF49  F011         	goto	l290
  9937  00223A                     u3700:
  9938  00223A                     
  9939                           ;io.c: 69:         if (type){ ((TRISE) |= (1<<(pin-32)));}
  9940  00223A  5003               	movf	pinMode@type^0,w,c
  9941  00223C  1004               	iorwf	(pinMode@type+1)^0,w,c
  9942  00223E  B4D8               	btfsc	status,2,c
  9943  002240  EF24  F011         	goto	u3711
  9944  002244  EF26  F011         	goto	u3710
  9945  002248                     u3711:
  9946  002248  EF38  F011         	goto	l3315
  9947  00224C                     u3710:
  9948  00224C  C001  F005         	movff	pinMode@pin,??_pinMode
  9949  002250  0EE0               	movlw	-32
  9950  002252  2605               	addwf	??_pinMode^0,f,c
  9951  002254  0E01               	movlw	1
  9952  002256  6E06               	movwf	(??_pinMode+1)^0,c
  9953  002258  2A05               	incf	??_pinMode^0,f,c
  9954  00225A  EF31  F011         	goto	u3724
  9955  00225E                     u3725:
  9956  00225E  90D8               	bcf	status,0,c
  9957  002260  3606               	rlcf	(??_pinMode+1)^0,f,c
  9958  002262                     u3724:
  9959  002262  2E05               	decfsz	??_pinMode^0,f,c
  9960  002264  EF2F  F011         	goto	u3725
  9961  002268  5006               	movf	(??_pinMode+1)^0,w,c
  9962  00226A  1296               	iorwf	150,f,c	;volatile
  9963  00226C  EF49  F011         	goto	l290
  9964  002270                     l3315:
  9965  002270  C001  F005         	movff	pinMode@pin,??_pinMode
  9966  002274  0EE0               	movlw	-32
  9967  002276  2605               	addwf	??_pinMode^0,f,c
  9968  002278  0E01               	movlw	1
  9969  00227A  6E06               	movwf	(??_pinMode+1)^0,c
  9970  00227C  2A05               	incf	??_pinMode^0,f,c
  9971  00227E  EF43  F011         	goto	u3734
  9972  002282                     u3735:
  9973  002282  90D8               	bcf	status,0,c
  9974  002284  3606               	rlcf	(??_pinMode+1)^0,f,c
  9975  002286                     u3734:
  9976  002286  2E05               	decfsz	??_pinMode^0,f,c
  9977  002288  EF41  F011         	goto	u3735
  9978  00228C  5006               	movf	(??_pinMode+1)^0,w,c
  9979  00228E  0AFF               	xorlw	255
  9980  002290  1696               	andwf	150,f,c	;volatile
  9981  002292                     l290:
  9982  002292  0012               	return		;funcret
  9983  002294                     __end_of_pinMode:
  9984                           	callstack 0
  9985                           
  9986                           	psect	rparam
  9987  0000                     
  9988                           	psect	idloc
  9989                           
  9990                           ;Config register IDLOC0 @ 0x200000
  9991                           ;	unspecified, using default values
  9992  200000                     	org	2097152
  9993  200000  FF                 	db	255
  9994                           
  9995                           ;Config register IDLOC1 @ 0x200001
  9996                           ;	unspecified, using default values
  9997  200001                     	org	2097153
  9998  200001  FF                 	db	255
  9999                           
 10000                           ;Config register IDLOC2 @ 0x200002
 10001                           ;	unspecified, using default values
 10002  200002                     	org	2097154
 10003  200002  FF                 	db	255
 10004                           
 10005                           ;Config register IDLOC3 @ 0x200003
 10006                           ;	unspecified, using default values
 10007  200003                     	org	2097155
 10008  200003  FF                 	db	255
 10009                           
 10010                           ;Config register IDLOC4 @ 0x200004
 10011                           ;	unspecified, using default values
 10012  200004                     	org	2097156
 10013  200004  FF                 	db	255
 10014                           
 10015                           ;Config register IDLOC5 @ 0x200005
 10016                           ;	unspecified, using default values
 10017  200005                     	org	2097157
 10018  200005  FF                 	db	255
 10019                           
 10020                           ;Config register IDLOC6 @ 0x200006
 10021                           ;	unspecified, using default values
 10022  200006                     	org	2097158
 10023  200006  FF                 	db	255
 10024                           
 10025                           ;Config register IDLOC7 @ 0x200007
 10026                           ;	unspecified, using default values
 10027  200007                     	org	2097159
 10028  200007  FF                 	db	255
 10029                           
 10030                           	psect	config
 10031                           
 10032                           ; Padding undefined space
 10033  300000                     	org	3145728
 10034  300000  FF                 	db	255
 10035                           
 10036                           ;Config register CONFIG1H @ 0x300001
 10037                           ;	Oscillator Selection bits
 10038                           ;	OSC = HS, HS oscillator
 10039                           ;	Fail-Safe Clock Monitor Enable bit
 10040                           ;	FCMEN = OFF, Fail-Safe Clock Monitor disabled
 10041                           ;	Internal/External Oscillator Switchover bit
 10042                           ;	IESO = OFF, Oscillator Switchover mode disabled
 10043  300001                     	org	3145729
 10044  300001  02                 	db	2
 10045                           
 10046                           ;Config register CONFIG2L @ 0x300002
 10047                           ;	Power-up Timer Enable bit
 10048                           ;	PWRT = OFF, PWRT disabled
 10049                           ;	Brown-out Reset Enable bits
 10050                           ;	BOREN = OFF, Brown-out Reset disabled in hardware and software
 10051                           ;	Brown Out Reset Voltage bits
 10052                           ;	BORV = 0x2E, user specified literal
 10053  300002                     	org	3145730
 10054  300002  71                 	db	369
 10055                           
 10056                           ;Config register CONFIG2H @ 0x300003
 10057                           ;	Watchdog Timer Enable bit
 10058                           ;	WDT = OFF, WDT disabled (control is placed on the SWDTEN bit)
 10059                           ;	Watchdog Timer Postscale Select bits
 10060                           ;	WDTPS = 1, 1:1
 10061  300003                     	org	3145731
 10062  300003  00                 	db	0
 10063                           
 10064                           ; Padding undefined space
 10065  300004                     	org	3145732
 10066  300004  FF                 	db	255
 10067                           
 10068                           ;Config register CONFIG3H @ 0x300005
 10069                           ;	CCP2 MUX bit
 10070                           ;	CCP2MX = PORTC, CCP2 input/output is multiplexed with RC1
 10071                           ;	PORTB A/D Enable bit
 10072                           ;	PBADEN = ON, PORTB<4:0> pins are configured as analog input channels on Reset
 10073                           ;	Low-Power Timer1 Oscillator Enable bit
 10074                           ;	LPT1OSC = OFF, Timer1 configured for higher power operation
 10075                           ;	MCLR Pin Enable bit
 10076                           ;	MCLRE = ON, MCLR pin enabled; RE3 input pin disabled
 10077  300005                     	org	3145733
 10078  300005  83                 	db	131
 10079                           
 10080                           ;Config register CONFIG4L @ 0x300006
 10081                           ;	Stack Full/Underflow Reset Enable bit
 10082                           ;	STVREN = OFF, Stack full/underflow will not cause Reset
 10083                           ;	Single-Supply ICSP Enable bit
 10084                           ;	LVP = OFF, Single-Supply ICSP disabled
 10085                           ;	Extended Instruction Set Enable bit
 10086                           ;	XINST = OFF, Instruction set extension and Indexed Addressing mode disabled (Legacy mo
      +                          de)
 10087                           ;	Background Debugger Enable bit
 10088                           ;	DEBUG = OFF, Background debugger disabled, RB6 and RB7 configured as general purpose I
      +                          /O pins
 10089  300006                     	org	3145734
 10090  300006  80                 	db	128
 10091                           
 10092                           ; Padding undefined space
 10093  300007                     	org	3145735
 10094  300007  FF                 	db	255
 10095                           
 10096                           ;Config register CONFIG5L @ 0x300008
 10097                           ;	Code Protection bit
 10098                           ;	CP0 = OFF, Block 0 (000800-001FFFh) not code-protected
 10099                           ;	Code Protection bit
 10100                           ;	CP1 = OFF, Block 1 (002000-003FFFh) not code-protected
 10101                           ;	Code Protection bit
 10102                           ;	CP2 = OFF, Block 2 (004000-005FFFh) not code-protected
 10103                           ;	Code Protection bit
 10104                           ;	CP3 = OFF, Block 3 (006000-007FFFh) not code-protected
 10105  300008                     	org	3145736
 10106  300008  0F                 	db	15
 10107                           
 10108                           ;Config register CONFIG5H @ 0x300009
 10109                           ;	Boot Block Code Protection bit
 10110                           ;	CPB = OFF, Boot block (000000-0007FFh) not code-protected
 10111                           ;	Data EEPROM Code Protection bit
 10112                           ;	CPD = OFF, Data EEPROM not code-protected
 10113  300009                     	org	3145737
 10114  300009  C0                 	db	192
 10115                           
 10116                           ;Config register CONFIG6L @ 0x30000A
 10117                           ;	Write Protection bit
 10118                           ;	WRT0 = OFF, Block 0 (000800-001FFFh) not write-protected
 10119                           ;	Write Protection bit
 10120                           ;	WRT1 = OFF, Block 1 (002000-003FFFh) not write-protected
 10121                           ;	Write Protection bit
 10122                           ;	WRT2 = OFF, Block 2 (004000-005FFFh) not write-protected
 10123                           ;	Write Protection bit
 10124                           ;	WRT3 = OFF, Block 3 (006000-007FFFh) not write-protected
 10125  30000A                     	org	3145738
 10126  30000A  0F                 	db	15
 10127                           
 10128                           ;Config register CONFIG6H @ 0x30000B
 10129                           ;	Configuration Register Write Protection bit
 10130                           ;	WRTC = OFF, Configuration registers (300000-3000FFh) not write-protected
 10131                           ;	Boot Block Write Protection bit
 10132                           ;	WRTB = OFF, Boot block (000000-0007FFh) not write-protected
 10133                           ;	Data EEPROM Write Protection bit
 10134                           ;	WRTD = OFF, Data EEPROM not write-protected
 10135  30000B                     	org	3145739
 10136  30000B  E0                 	db	224
 10137                           
 10138                           ;Config register CONFIG7L @ 0x30000C
 10139                           ;	Table Read Protection bit
 10140                           ;	EBTR0 = OFF, Block 0 (000800-001FFFh) not protected from table reads executed in other
      +                           blocks
 10141                           ;	Table Read Protection bit
 10142                           ;	EBTR1 = OFF, Block 1 (002000-003FFFh) not protected from table reads executed in other
      +                           blocks
 10143                           ;	Table Read Protection bit
 10144                           ;	EBTR2 = OFF, Block 2 (004000-005FFFh) not protected from table reads executed in other
      +                           blocks
 10145                           ;	Table Read Protection bit
 10146                           ;	EBTR3 = OFF, Block 3 (006000-007FFFh) not protected from table reads executed in other
      +                           blocks
 10147  30000C                     	org	3145740
 10148  30000C  0F                 	db	15
 10149                           
 10150                           ;Config register CONFIG7H @ 0x30000D
 10151                           ;	Boot Block Table Read Protection bit
 10152                           ;	EBTRB = OFF, Boot block (000000-0007FFh) not protected from table reads executed in ot
      +                          her blocks
 10153  30000D                     	org	3145741
 10154  30000D  40                 	db	64
 10155                           tosu	equ	0xFFF
 10156                           tosh	equ	0xFFE
 10157                           tosl	equ	0xFFD
 10158                           stkptr	equ	0xFFC
 10159                           pclatu	equ	0xFFB
 10160                           pclath	equ	0xFFA
 10161                           pcl	equ	0xFF9
 10162                           tblptru	equ	0xFF8
 10163                           tblptrh	equ	0xFF7
 10164                           tblptrl	equ	0xFF6
 10165                           tablat	equ	0xFF5
 10166                           prodh	equ	0xFF4
 10167                           prodl	equ	0xFF3
 10168                           indf0	equ	0xFEF
 10169                           postinc0	equ	0xFEE
 10170                           postdec0	equ	0xFED
 10171                           preinc0	equ	0xFEC
 10172                           plusw0	equ	0xFEB
 10173                           fsr0h	equ	0xFEA
 10174                           fsr0l	equ	0xFE9
 10175                           wreg	equ	0xFE8
 10176                           indf1	equ	0xFE7
 10177                           postinc1	equ	0xFE6
 10178                           postdec1	equ	0xFE5
 10179                           preinc1	equ	0xFE4
 10180                           plusw1	equ	0xFE3
 10181                           fsr1h	equ	0xFE2
 10182                           fsr1l	equ	0xFE1
 10183                           bsr	equ	0xFE0
 10184                           indf2	equ	0xFDF
 10185                           postinc2	equ	0xFDE
 10186                           postdec2	equ	0xFDD
 10187                           preinc2	equ	0xFDC
 10188                           plusw2	equ	0xFDB
 10189                           fsr2h	equ	0xFDA
 10190                           fsr2l	equ	0xFD9
 10191                           status	equ	0xFD8

Data Sizes:
    Strings     156
    Constant    26
    Data        14
    BSS         26
    Persistent  0
    Stack       0

Auto Spaces:
    Space          Size  Autos    Used
    COMRAM          127    111     127
    BANK0           128     28      52
    BANK1           256      0       0
    BANK2           256      0       0
    BANK3           256      0       0
    BANK4           256      0       0
    BANK5           256      0       0

Pointer List with Targets:

    lcdString@msg	PTR unsigned char  size(2) Largest target is 17
		 -> STR_23(CODE[8]), STR_22(CODE[4]), STR_21(CODE[8]), STR_20(CODE[4]), 
		 -> STR_19(CODE[8]), STR_18(CODE[4]), STR_17(CODE[8]), STR_16(CODE[4]), 
		 -> STR_15(CODE[2]), STR_14(CODE[8]), STR_13(CODE[4]), STR_12(CODE[7]), 
		 -> STR_11(CODE[3]), STR_10(CODE[12]), STR_9(CODE[2]), STR_8(CODE[2]), 
		 -> STR_7(CODE[5]), STR_6(CODE[6]), STR_5(CODE[3]), STR_4(CODE[6]), 
		 -> STR_3(CODE[17]), STR_2(CODE[17]), STR_1(CODE[17]), 


Critical Paths under _main in COMRAM

    _main->_ssdHeat
    _ssdInit->_pinMode
    _ssdHeat->___fltol
    _ssdUpdate->_soWrite
    _pwmSet->___lwdiv
    _rgbInit->_pinMode
    _pwmInit->_pwmFrequency
    _pwmFrequency->___aldiv
    _lcdInit->_lcdCommand
    _pushNibble->_soWrite
    _kpInit->_pinMode
    _soInit->_pinMode
    _instrucaoLCD->_lcdString
    _infoTemp->_lcdNumber
    _infoPress->_lcdNumber
    _infoGeral->___awdiv
    _infoIndividual->_lcdNumber
    _rgbColor->_digitalWrite
    ___flge->___flmul
    _configuraPSI->_lcdNumber
    _lcdPosition->_lcdCommand
    _lcdNumberUnit->___awmod
    _lcdNumberUnit->_lcdChar
    _comandos->_lcdNumber
    _lcdString->_lcdChar
    _lcdNumber->___fltol
    _lcdChar->_pushByte
    ___awmod->___awdiv
    _lcdCommand->_pushByte
    _pushByte->_soWrite
    _pulseEnablePin->_digitalWrite
    _kpDebounce->_soWrite
    _soWrite->_digitalWrite
    _PulseEnClock->_digitalWrite
    _PulseClockData->_digitalWrite
    ___fltol->___flsub
    ___flsub->___flmul
    ___fladd->___fldiv
    ___flmul->___fladd
    ___fldiv->___xxtofl
    _adcInit->_pinMode

Critical Paths under _main in BANK0

    _main->_comandos
    _configuraPSI->_comandos

Critical Paths under _main in BANK1

    None.

Critical Paths under _main in BANK2

    None.

Critical Paths under _main in BANK3

    None.

Critical Paths under _main in BANK4

    None.

Critical Paths under _main in BANK5

    None.

Call Graph Tables:

 ---------------------------------------------------------------------------------
 (Depth) Function   	        Calls       Base Space   Used Autos Params    Refs
 ---------------------------------------------------------------------------------
 (0) _main                                                 4     4      0 1055320
                                            107 COMRAM     4     4      0
                            _adcInit
                           _comandos
                       _configuraPSI
                     _infoIndividual
                          _infoPress
                           _infoTemp
                       _instrucaoLCD
                         _kpDebounce
                             _kpInit
                          _kpReadKey
                         _lcdCommand
                            _lcdInit
                        _lcdPosition
                          _lcdString
                            _pwmInit
                            _rgbInit
                            _ssdHeat
                            _ssdInit
                              _teste
 ---------------------------------------------------------------------------------
 (1) _teste                                                0     0      0       0
 ---------------------------------------------------------------------------------
 (1) _ssdInit                                              0     0      0    6048
                            _pinMode
                             _soInit
 ---------------------------------------------------------------------------------
 (1) _ssdHeat                                              9     9      0   32209
                                             98 COMRAM     9     9      0
                            ___fladd
                            ___fldiv
                            ___flmul
                            ___fltol
                           ___xxtofl
                             _pwmSet
                           _ssdDigit
                          _ssdUpdate
 ---------------------------------------------------------------------------------
 (2) _ssdUpdate                                            2     2      0   21377
                                              9 COMRAM     2     2      0
                       _digitalWrite
                            _soWrite
 ---------------------------------------------------------------------------------
 (2) _ssdDigit                                             2     1      1     784
                                              0 COMRAM     2     1      1
 ---------------------------------------------------------------------------------
 (2) _pwmSet                                               5     5      0     716
                                              7 COMRAM     5     5      0
                            ___lwdiv
                             ___wmul
 ---------------------------------------------------------------------------------
 (3) ___wmul                                               6     2      4     311
                                              0 COMRAM     6     2      4
 ---------------------------------------------------------------------------------
 (3) ___lwdiv                                              7     3      4     314
                                              0 COMRAM     7     3      4
 ---------------------------------------------------------------------------------
 (1) _rgbInit                                              0     0      0    3024
                            _pinMode
 ---------------------------------------------------------------------------------
 (1) _pwmInit                                              0     0      0     550
                       _pwmFrequency
 ---------------------------------------------------------------------------------
 (2) _pwmFrequency                                         2     0      2     550
                                             14 COMRAM     2     0      2
                            ___aldiv
 ---------------------------------------------------------------------------------
 (3) ___aldiv                                             14     6      8     452
                                              0 COMRAM    14     6      8
 ---------------------------------------------------------------------------------
 (1) _lcdInit                                              0     0      0   61564
                         _delayMicro
                          _delayMili
                         _lcdCommand
                            _pinMode
                         _pushNibble
                             _soInit
 ---------------------------------------------------------------------------------
 (2) _pushNibble                                           3     1      2   27261
                                              9 COMRAM     3     1      2
                       _digitalWrite
                     _pulseEnablePin
                            _soWrite
 ---------------------------------------------------------------------------------
 (1) _kpInit                                               0     0      0    6048
                            _pinMode
                             _soInit
 ---------------------------------------------------------------------------------
 (2) _soInit                                               0     0      0    3024
                            _pinMode
 ---------------------------------------------------------------------------------
 (1) _instrucaoLCD                                         4     4      0  113090
                                             20 COMRAM     4     4      0
                            _lcdChar
                         _lcdCommand
                        _lcdPosition
                          _lcdString
 ---------------------------------------------------------------------------------
 (1) _infoTemp                                             0     0      0   88195
                          _infoGeral
                         _lcdCommand
                          _lcdNumber
                          _lcdString
 ---------------------------------------------------------------------------------
 (1) _infoPress                                            0     0      0   88195
                          _infoGeral
                         _lcdCommand
                          _lcdNumber
                          _lcdString
 ---------------------------------------------------------------------------------
 (2) _infoGeral                                            2     2      0    1060
                                              8 COMRAM     2     2      0
                            ___awdiv
 ---------------------------------------------------------------------------------
 (1) _infoIndividual                                       2     2      0  155429
                                            102 COMRAM     2     2      0
                             ___flge
                            ___flmul
                           ___xxtofl
                            _lcdChar
                          _lcdNumber
                      _lcdNumberUnit
                        _lcdPosition
                          _lcdString
                           _rgbColor
 ---------------------------------------------------------------------------------
 (2) _rgbColor                                             2     0      2    5450
                                              6 COMRAM     2     0      2
                       _digitalWrite
 ---------------------------------------------------------------------------------
 (2) ___flge                                              12     4      8     790
                                             80 COMRAM    12     4      8
                            ___flmul (ARG)
                           ___xxtofl (ARG)
 ---------------------------------------------------------------------------------
 (1) _configuraPSI                                         1     1      0  278718
                                            102 COMRAM     1     1      0
                           _comandos
                         _kpDebounce
                         _lcdCommand
                          _lcdNumber
                      _lcdNumberUnit
                        _lcdPosition
                          _lcdString
 ---------------------------------------------------------------------------------
 (1) _lcdPosition                                          4     0      4   28525
                                             14 COMRAM     4     0      4
                         _lcdCommand
 ---------------------------------------------------------------------------------
 (2) _lcdNumberUnit                                        4     2      2   29457
                                             14 COMRAM     4     2      2
                            ___awdiv
                            ___awmod
                            _lcdChar
 ---------------------------------------------------------------------------------
 (2) _comandos                                            28    28      0  116896
                                              0 BANK0     28    28      0
                            ___fladd
                            ___fldiv
                            ___flmul
                            ___flsub
                            ___fltol
                           ___xxtofl
                            _adcRead
                         _kpDebounce
                          _kpReadKey
                         _lcdCommand
                          _lcdNumber
                          _lcdString
 ---------------------------------------------------------------------------------
 (1) _lcdString                                            6     4      2   29393
                                             14 COMRAM     6     4      2
                            _lcdChar
 ---------------------------------------------------------------------------------
 (2) _lcdNumber                                            4     2      2   30217
                                             98 COMRAM     4     2      2
                            ___awdiv
                            ___awmod
                            ___fladd (ARG)
                            ___fldiv (ARG)
                            ___flmul (ARG)
                            ___fltol (ARG)
                           ___xxtofl (ARG)
                            _lcdChar
 ---------------------------------------------------------------------------------
 (2) _lcdChar                                              1     1      0   27555
                                             13 COMRAM     1     1      0
                         _delayMicro
                           _pushByte
 ---------------------------------------------------------------------------------
 (3) ___awmod                                              6     2      4     600
                                              8 COMRAM     6     2      4
                            ___awdiv (ARG)
 ---------------------------------------------------------------------------------
 (3) ___awdiv                                              8     4      4    1060
                                              0 COMRAM     8     4      4
 ---------------------------------------------------------------------------------
 (2) _lcdCommand                                           1     1      0   27525
                                             13 COMRAM     1     1      0
                          _delayMili
                           _pushByte
 ---------------------------------------------------------------------------------
 (3) _pushByte                                             4     2      2   27153
                                              9 COMRAM     4     2      2
                       _digitalWrite
                     _pulseEnablePin
                            _soWrite
 ---------------------------------------------------------------------------------
 (4) _pulseEnablePin                                       0     0      0    5536
                         _delayMicro
                       _digitalWrite
 ---------------------------------------------------------------------------------
 (5) _delayMicro                                           4     2      2     380
                                              0 COMRAM     2     0      2
 ---------------------------------------------------------------------------------
 (3) _delayMili                                            5     3      2     350
                                              0 COMRAM     5     3      2
 ---------------------------------------------------------------------------------
 (1) _kpReadKey                                            5     5      0      90
                                              0 COMRAM     5     5      0
 ---------------------------------------------------------------------------------
 (1) _kpDebounce                                           5     5      0   16705
                                              9 COMRAM     5     5      0
                        _digitalRead
                            _soWrite
 ---------------------------------------------------------------------------------
 (3) _soWrite                                              3     1      2   16221
                                              6 COMRAM     3     1      2
                     _PulseClockData
                       _PulseEnClock
                       _digitalWrite
 ---------------------------------------------------------------------------------
 (4) _PulseEnClock                                         0     0      0    5156
                       _digitalWrite
 ---------------------------------------------------------------------------------
 (4) _PulseClockData                                       0     0      0    5156
                       _digitalWrite
 ---------------------------------------------------------------------------------
 (4) _digitalWrite                                         6     2      4    5156
                                              0 COMRAM     6     2      4
 ---------------------------------------------------------------------------------
 (2) _digitalRead                                          5     3      2     372
                                              0 COMRAM     5     3      2
 ---------------------------------------------------------------------------------
 (3) _adcRead                                              4     2      2     221
                                              0 COMRAM     4     2      2
 ---------------------------------------------------------------------------------
 (2) ___xxtofl                                            14    10      4    1234
                                              0 COMRAM    14    10      4
 ---------------------------------------------------------------------------------
 (2) ___fltol                                             10     6      4     533
                                             88 COMRAM    10     6      4
                            ___fladd (ARG)
                            ___fldiv (ARG)
                            ___flmul (ARG)
                            ___flsub (ARG)
                           ___xxtofl (ARG)
 ---------------------------------------------------------------------------------
 (3) ___flsub                                              8     0      8    3041
                                             80 COMRAM     8     0      8
                            ___fladd
                            ___fldiv (ARG)
                            ___flmul (ARG)
                           ___xxtofl (ARG)
 ---------------------------------------------------------------------------------
 (2) ___fladd                                             16     8      8    2718
                                             39 COMRAM    16     8      8
                            ___fldiv (ARG)
                           ___xxtofl (ARG)
 ---------------------------------------------------------------------------------
 (2) ___flmul                                             25    17      8    2808
                                             55 COMRAM    25    17      8
                            ___fladd (ARG)
                            ___fldiv (ARG)
                           ___xxtofl (ARG)
 ---------------------------------------------------------------------------------
 (2) ___fldiv                                             25    17      8    1855
                                             14 COMRAM    25    17      8
                           ___xxtofl (ARG)
 ---------------------------------------------------------------------------------
 (1) _adcInit                                              0     0      0    3024
                            _pinMode
 ---------------------------------------------------------------------------------
 (3) _pinMode                                              6     2      4    3024
                                              0 COMRAM     6     2      4
 ---------------------------------------------------------------------------------
 Estimated maximum stack depth 5
 ---------------------------------------------------------------------------------

 Call Graph Graphs:

 _main (ROOT)
   _adcInit
     _pinMode
   _comandos
     ___fladd
       ___fldiv (ARG)
         ___xxtofl (ARG)
       ___xxtofl (ARG)
     ___fldiv
     ___flmul
       ___fladd (ARG)
       ___fldiv (ARG)
       ___xxtofl (ARG)
     ___flsub
       ___fladd
       ___fldiv (ARG)
       ___flmul (ARG)
       ___xxtofl (ARG)
     ___fltol
       ___fladd (ARG)
       ___fldiv (ARG)
       ___flmul (ARG)
       ___flsub (ARG)
       ___xxtofl (ARG)
     ___xxtofl
     _adcRead
     _kpDebounce
       _digitalRead
       _soWrite
         _PulseClockData
           _digitalWrite
         _PulseEnClock
           _digitalWrite
         _digitalWrite
     _kpReadKey
     _lcdCommand
       _delayMili
       _pushByte
         _digitalWrite
         _pulseEnablePin
           _delayMicro
           _digitalWrite
         _soWrite
     _lcdNumber
       ___awdiv
       ___awmod
         ___awdiv (ARG)
       ___fladd (ARG)
       ___fldiv (ARG)
       ___flmul (ARG)
       ___fltol (ARG)
       ___xxtofl (ARG)
       _lcdChar (ARG)
         _delayMicro
         _pushByte
     _lcdString
       _lcdChar
   _configuraPSI
     _comandos
     _kpDebounce
     _lcdCommand
     _lcdNumber
     _lcdNumberUnit
       ___awdiv
       ___awmod
       _lcdChar
     _lcdPosition
       _lcdCommand
     _lcdString
   _infoIndividual
     ___flge
       ___flmul (ARG)
       ___xxtofl (ARG)
     ___flmul
     ___xxtofl
     _lcdChar
     _lcdNumber
     _lcdNumberUnit
     _lcdPosition
     _lcdString
     _rgbColor
       _digitalWrite
   _infoPress
     _infoGeral
       ___awdiv
     _lcdCommand
     _lcdNumber
     _lcdString
   _infoTemp
     _infoGeral
     _lcdCommand
     _lcdNumber
     _lcdString
   _instrucaoLCD
     _lcdChar
     _lcdCommand
     _lcdPosition
     _lcdString
   _kpDebounce
   _kpInit
     _pinMode
     _soInit
       _pinMode
   _kpReadKey
   _lcdCommand
   _lcdInit
     _delayMicro
     _delayMili
     _lcdCommand
     _pinMode
     _pushNibble
       _digitalWrite
       _pulseEnablePin
       _soWrite
     _soInit
   _lcdPosition
   _lcdString
   _pwmInit
     _pwmFrequency
       ___aldiv
   _rgbInit
     _pinMode
   _ssdHeat
     ___fladd
     ___fldiv
     ___flmul
     ___fltol
     ___xxtofl
     _pwmSet
       ___lwdiv
       ___wmul
     _ssdDigit
     _ssdUpdate
       _digitalWrite
       _soWrite
   _ssdInit
     _pinMode
     _soInit
   _teste

 Address spaces:
Name               Size   Autos  Total    Cost      Usage
BIGRAM             5FF      0       0      17        0.0%
EEDATA             100      0       0       0        0.0%
BITBANK5           100      0       0      16        0.0%
BANK5              100      0       0      14        0.0%
BITBANK4           100      0       0      12        0.0%
BANK4              100      0       0      13        0.0%
BITBANK3           100      0       0      10        0.0%
BANK3              100      0       0      11        0.0%
BITBANK2           100      0       0       8        0.0%
BANK2              100      0       0       9        0.0%
BITBANK1           100      0       0       6        0.0%
BANK1              100      0       0       7        0.0%
BITBANK0            80      0       0       4        0.0%
BANK0               80     1C      34       5       40.6%
BITCOMRAM           7F      0       0       0        0.0%
COMRAM              7F     6F      7F       1      100.0%
BITSFR               0      0       0     200        0.0%
SFR                  0      0       0     200        0.0%
STACK                0      0       0       2        0.0%
NULL                 0      0       0       0        0.0%
ABS                  0      0      B3      15        0.0%
DATA                 0      0      B3       3        0.0%
CODE                 0      0       0       0        0.0%


Microchip Technology PIC18 Macro Assembler V2.32 build 20210201212658 
Symbol Table                                                                                   Fri Dec 17 13:37:56 2021

          ?_configuraPSI 0001             ___fldiv@aexp 0027             ___fldiv@bexp 0026  
                      _p 00B0             ___fldiv@sign 001F          ??_lcdNumberUnit 0011  
         _pulseEnablePin 3770             lcdString@msg 000F                       _b2 007A  
           ___awdiv@sign 0006                       _v0 0073                       _v1 0072  
                     _v2 0071                       _v3 0070                       _pC 00AC  
                     _pG 0078                       _tp 00A8      ___wmul@multiplicand 0003  
                    l105 25B0                      l123 2DE0                      l211 1DF6  
                    l116 2EA8                      l214 389E                      l128 08AA  
                    l313 31FA                      l403 30D0                      l260 28B6  
                    l332 3906                      l261 28B2                      l165 0B36  
                    l149 0A3C                      l190 348A                      l431 398A  
                    l327 29DC                      l343 3A62                      l511 33C2  
                    l256 2044                      l352 37B0                      l176 0BC0  
                    l520 39B0                      l265 28B2                      l329 29F4  
                    l361 3A38                      l193 3426                      l425 382C  
                    l290 2292                      l514 39D6                      l418 37EE  
                    l451 3728                      l187 1B64                      l355 39FC  
                    l428 3960                      l436 36E0                      l196 38D4  
                    l349 3936                      l381 3356                      l517 3A52  
                    l358 353E                      l366 3866                      l390 3020  
                    l455 3668                      l375 3642                      l457 3676  
                    l369 3A1A                      l458 3692                      l387 32E2  
                    l485 3596                      l751 2F6C                      l495 274C  
                    l817 2C06                      l498 35EC                      l764 3180  
                    l790 2D0A                      l599 2B00                      l785 2CC4  
                    _PR2 000FCB                      _tpG 0077                      _num 007C  
                    _pot 00A6                      _prt 007E                      _tol 00A2  
           ___awmod@sign 000E                      wreg 000FE8             ___flmul@aexp 0049  
           ___flmul@bexp 004A             ___flmul@sign 0044             ___flmul@temp 004F  
           ___flmul@prod 004B             ___fltol@exp1 0062                     l1011 3266  
                   l1102 1844                     l1104 16A4                     l1113 16EA  
                   l1050 0D64                     l1018 326E                     l1115 1762  
                   l1107 1668                     l1116 1750                     l1141 133C  
                   l1134 1146                     l1151 146C                     l1143 13B4  
                   l1144 13A2                     l1048 0DB0                     l1065 0ECA  
                   l1057 1080                     l3001 0D4C                     l1049 0D9E  
                   l1138 14AA                     l1074 0F9A                     l1090 376E  
                   l1075 0F88                     l3011 0D90                     l3003 0D5C  
                   l3101 1040                     l3013 0D92                     l3005 0D72  
                   l1182 2382                     l3111 1060                     l3103 1044  
                   l3031 0E1A                     l3023 0DE2                     l3015 0D9C  
                   l3007 0D7E                     l1175 22EA                     l3113 106E  
                   l3105 1052                     l3033 0E1E                     l3025 0DF2  
                   l3017 0DBE                     l3041 0E3E                     l3009 0D82  
                   l3121 2EAE                     l3201 35FA                     l1178 2446  
                   l3115 1070                     l3107 1058                     l3043 0E64  
                   l3051 0EBA                     l3035 0E2C                     l3027 0E00  
                   l3019 0DCE                     l3131 2EDE                     l3123 2EBC  
                   l3203 3616                     l4011 3378                     l4003 2712  
                   l3301 21A6                     l3109 105A                     l3061 0F0E  
                   l3053 0EE0                     l3045 0E98                     l3037 0E2E  
                   l3029 0E0E                     l1189 23DE                     l3221 29A8  
                   l3213 28EA                     l3141 2F0C                     l3133 2EE2  
                   l3125 2EC4                     l3205 361A                     l4101 2E1C  
                   l4021 39DA                     l4013 3394                     l3311 223A  
                   l3303 21C2                     l3071 0F38                     l3063 0F1C  
                   l3055 0EF0                     l3047 0E9A                     l3039 0E38  
                   l3231 29D4                     l3215 2936                     l3207 28B8  
                   l3151 2F40                     l3143 2F1A                     l3135 2EEA  
                   l3127 2EC8                     l3119 2EAA                     l4111 2E50  
                   l4103 2E22                     l4031 2C74                     l4023 39B2  
                   l4015 339C                     l3313 224C                     l3305 21D4  
                   l3401 1560                     l3081 0F6A                     l3073 0F48  
                   l3065 0F1E                     l3049 0EAA                     l3233 29EC  
                   l3217 295E                     l3225 29B0                     l3209 28CA  
                   l3241 318A                     l3153 2F46                     l3145 2F20  
                   l3137 2EFC                     l3129 2ED6                     l4113 2E5C  
                   l4105 2E2E                     l4041 2D02                     l4033 2C84  
                   l4025 2C08                     l4201 3486                     l4121 2D0C  
                   l4017 33B4                     l4009 335A                     l3315 2270  
                   l3307 21F8                     l3411 15A6                     l3403 1568  
                   l3091 0FC4                     l3083 0F80                     l3067 0F2C  
                   l3059 0F04                     l3075 0F4A                     l3227 29CA  
                   l3219 297C                     l3251 31F8                     l3243 31C4  
                   l3235 3182                     l3147 2F36                     l3139 2F04  
                   l3155 2F4C                     l3171 30F0                     l3163 30D2  
                   l4115 2E7A                     l4107 2E34                     l4043 2D08  
                   l4035 2C92                     l4027 2C36                     l4211 3402  
                   l4203 33C4                     l4131 2D50                     l4123 2D18  
                   l4019 37F0                     l4051 38D6                     l3331 2A1C  
                   l3323 29F6                     l3309 221E                     l3421 15CE  
                   l3413 15AA                     l3405 1578                     l3093 0FFE  
                   l3069 0F34                     l3077 0F58                     l3229 29D0  
                   l3157 2F5C                     l3149 2F3E                     l3181 3128  
                   l3173 30FE                     l3165 30D6                     l3261 333C  
                   l4109 2E40                     l4117 2E94                     l4037 2CA4  
                   l4029 2C46                     l4213 3418                     l4205 33D0  
                   l4133 2D64                     l4125 2D24                     l4053 3902  
                   l4061 2FF4                     l3341 2A64                     l3333 2A2A  
                   l3325 29FA                     l3317 398C                     l4221 1B66  
                   l4071 36E2                     l3431 161C                     l3407 158E  
                   l3511 109E                     l3087 0FAA                     l3095 1000  
                   l3079 0F5C                     l3271 3682                     l3263 3644  
                   l3247 31D8                     l3255 3A1E                     l3159 2F64  
                   l3183 3136                     l3191 3160                     l3175 3106  
                   l3167 30E4                     l4119 2E98                     l4039 2CB2  
                   l4215 3422                     l4207 33DA                     l4151 2DA4  
                   l4143 2D98                     l4135 2D84                     l4127 2D44  
                   l4063 3002                     l4055 2F6E                     l3351 2AAE  
                   l3343 2A6C                     l3335 2A3A                     l3327 2A08  
                   l4047 37B2                     l3319 39A8                     l4223 1B76  
                   l4311 24B8                     l3281 2074                     l4073 371E  
                   l3441 1666                     l3433 162C                     l3425 15E2  
                   l3409 159E                     l3417 15BE                     l3601 139A  
                   l3521 10E4                     l3513 10AE                     l3505 1082  
                   l3097 1010                     l3089 0FB6                     l3273 368A  
                   l3265 365E                     l2801 1E14                     l3249 31DC  
                   l3193 3170                     l3185 314C                     l3177 3118  
                   l3169 30EC                     l3257 32E4                     l4161 1862  
                   l4209 33F6                     l4153 2DC0                     l4137 2D90  
                   l4129 2D4A                     l4065 300E                     l4057 2FCE  
                   l3361 2AE0                     l3353 2ABE                     l3345 2A78  
                   l3337 2A3E                     l3329 2A18                     l4081 3A3C  
                   l4233 1C5C                     l4225 1C2C                     l4049 3598  
                   l4217 3868                     l4321 24FC                     l4313 24BC  
                   l4305 249C                     l3291 2108                     l3283 2094  
                   l4075 3720                     l3451 16B4                     l3443 1672  
                   l3435 1634                     l3427 15FC                     l3419 15CE  
                   l3371 14C6                     l3611 1408                     l3531 1110  
                   l3523 10EA                     l3515 10BE                     l3507 108E  
                   l3099 1020                     l3267 3666                     l2811 1E9E  
                   l2803 1E26                     l3195 3178                     l3187 3154  
                   l3179 3120                     l3259 32F0                     l4091 2DEC  
                   l4171 18CE                     l4163 186E                     l4155 2DC4  
                   l4067 3014                     l4059 2FDA                     l3363 2AF0  
                   l3355 2AC0                     l3347 2A86                     l3339 2A4E  
                   l4083 3A40                     l4251 1C98                     l4243 1C6E  
                   l4235 1C60                     l4227 1C54                     l4219 389A  
                   l4331 251E                     l4323 2500                     l4315 24C0  
                   l4307 24A0                     l3293 212E                     l3285 20B6  
                   l3277 2046                     l4077 3724                     l3453 16CA  
                   l3461 16FA                     l3445 1690                     l3437 1644  
                   l3429 160C                     l3381 14FA                     l3373 14C8  
                   l3621 1470                     l3605 13C4                     l3613 140C  
                   l3541 1166                     l3533 1120                     l3525 10F0  
                   l3517 10CE                     l3509 109C                     l3269 367C  
                   l2821 1F36                     l2813 1EBE                     l2805 1E46  
                   l3189 315A                     l4093 2DF0                     l4181 1A1C  
                   l4173 18D4                     l4165 1888                     l4157 1846  
                   l4149 2DA0                     l4069 301A                     l3357 2ACA  
                   l3349 2A90                     l4085 3A42                     l3701 3258  
                   l4253 1CB4                     l4245 1C74                     l4237 1C66  
                   l4333 252E                     l4325 2504                     l4317 24DC  
                   l4309 24B4                     l3295 214A                     l3287 20D2  
                   l3279 2062                     l3463 1708                     l3455 16D0  
                   l3447 1692                     l3439 1658                     l3391 152C  
                   l3375 14D8                     l3383 1502                     l3367 14AC  
                   l3631 149A                     l3623 1480                     l3615 1426  
                   l3607 13D0                     l3551 11A6                     l3535 1130  
                   l3527 10FE                     l3519 10D4                     l3711 22B4  
                   l2831 1FD0                     l2823 1F58                     l2815 1EE0  
                   l2807 1E68                     l2911 3908                     l3199 35EE  
                   l4095 2DF4                     l4183 1AB2                     l4175 18E0  
                   l4167 1894                     l4159 1852                     l4191 3434  
                   l3359 2AD0                     l4087 3A46                     l4079 3A3A  
                   l3703 325A                     l4247 1C78                     l4255 1CBE  
                   l4351 2564                     l4343 2554                     l4335 2532  
                   l4327 2508                     l4319 24E0                     l3297 215C  
                   l3289 20E4                     l3473 1772                     l3481 17BA  
                   l3465 170C                     l3457 16DA                     l3449 16A2  
                   l3393 152E                     l3385 1512                     l3377 14E8  
                   l3369 14B8                     l3625 148E                     l3617 143A  
                   l3609 13DE                     l3561 11F0                     l3553 11B2  
                   l3545 117A                     l3537 1136                     l3529 1100  
                   l2921 0BDC                     l3641 2B02                     l3721 232C  
                   l3713 22FA                     l2905 286A                     l2833 1FEC  
                   l2825 1F74                     l2817 1EFC                     l2809 1E84  
                   l2841 3962                     l2913 3914                     l4097 2E04  
                   l4089 2DE2                     l4185 1B48                     l4177 1976  
                   l4169 18A8                     l4193 343E                     l3705 3260  
                   l4281 1DD0                     l4265 1D98                     l4257 1D68  
                   l4249 1C94                     l4361 2586                     l4353 2568  
                   l4337 253A                     l4329 2518                     l3299 2180  
                   l3491 1824                     l3483 17D4                     l3475 177E  
                   l3467 171A                     l3459 16E8                     l3395 153E  
                   l3387 1518                     l3379 14F8                     l3627 1490  
                   l3619 1454                     l3571 1242                     l3563 11FC  
                   l3555 11CA                     l3547 1186                     l3539 1156  
                   l2931 0C10                     l2923 0BDE                     l3635 372A  
                   l3651 2B58                     l3643 2B18                     l3731 23B4  
                   l3723 2338                     l3715 2310                     l3707 2296  
                   l2907 2886                     l2835 2006                     l2827 1F8E  
                   l2819 1F16                     l2851 36AC                     l2843 3694  
                   l2915 3918                     l3803 08FC                     l4099 2E08  
                   l4187 1B58                     l4179 1A0C                     l4195 345A  
                   l4419 2726                     l4283 1DD4                     l4275 1DAA  
                   l4267 1D9C                     l4259 1D90                     l4371 25C6  
                   l4363 2598                     l4355 257A                     l4339 254C  
                   l4347 255C                     l4291 246C                     l3493 1832  
                   l3485 17EA                     l3477 178C                     l3469 1748  
                   l3397 154E                     l3389 151E                     l3629 1496  
                   l3581 12C0                     l3573 1252                     l3565 120C  
                   l3557 11D6                     l3549 1190                     l2941 0C42  
                   l2925 0BEE                     l2933 0C18                     l2917 0BC2  
                   l3637 373A                     l3653 2B68                     l3741 23F2  
                   l3733 23C0                     l3725 236A                     l3709 22A6  
                   l2837 2026                     l2829 1FAE                     l2853 36C4  
                   l2845 36A8                     l2861 3770                     l3901 0B28  
                   l3821 094A                     l3813 092C                     l3805 0904  
                   l4197 3466                     l4189 3428                     l4285 1DF0  
                   l4277 1DB0                     l4269 1DA2                     l4373 25D6  
                   l4365 25A8                     l4357 257E                     l4349 2560  
                   l4293 248C                     l3495 1838                     l3487 1804  
                   l3479 17B6                     l3399 155E                     l3591 133A  
                   l3583 12F6                     l3575 126E                     l3567 1218  
                   l3559 11E2                     l2951 0C78                     l2943 0C48  
                   l2935 0C28                     l2927 0BFE                     l2919 0BCE  
                   l3663 2B92                     l3655 2B6C                     l3647 2B2C  
                   l3743 2416                     l3735 23CE                     l3727 236C  
                   l3719 2324                     l2839 3938                     l2855 36CA  
                   l2863 3784                     l2871 3A0E                     l3911 0B6A  
                   l3903 0B32                     l3823 0958                     l4199 347C  
                   l4279 1DB4                     l4367 25B2                     l4359 2582  
                   l4287 2448                     l3497 183A                     l3489 1820  
                   l3593 134C                     l3585 1304                     l3577 127A  
                   l3569 1228                     l2961 0CB4                     l2953 0C88  
                   l2945 0C56                     l2937 0C2E                     l2929 0C0E  
                   l3681 2BF6                     l3673 2BBA                     l3665 2B9C  
                   l3657 2B7A                     l3649 2B56                     l3745 2426  
                   l3737 23EC                     l3729 2378                     l2881 2792  
                   l2873 274E                     l2857 36CC                     l2865 3790  
                   l3905 0B42                     l3833 09A0                     l3841 09B0  
                   l3809 0924                     l3817 0934                     l3761 06B8  
                   l3753 382E                     l4369 25B6                     l4289 2460  
                   l3595 135A                     l3587 1322                     l3579 1296  
                   l2971 0CD2                     l2963 0CC2                     l2955 0C8A  
                   l2947 0C58                     l2939 0C40                     l3675 2BC6  
                   l3667 2BA6                     l3747 2434                     l3739 23EE  
                   l2891 27F6                     l2883 27AE                     l2875 276A  
                   l2859 36DC                     l2867 34E8                     l3915 0B8A  
                   l3923 0B9A                     l3851 09FA                     l3843 09C4  
                   l3827 0978                     l3819 0948                     l3771 07A4  
                   l3763 06CC                     l3931 3270                     l3755 3840  
                   l3691 321E                     l4299 2494                     l3597 135E  
                   l3589 132C                     l2981 0CE6                     l2973 0CD6  
                   l2965 0CC6                     l2949 0C68                     l2957 0C92  
                   l3677 2BD6                     l3749 2436                     l2869 3A00  
                   l3909 0B62                     l3925 0BA4                     l3861 0A38  
                   l3853 0A04                     l3845 09C8                     l3837 09A8  
                   l3829 0980                     l3781 087A                     l3773 0848  
                   l3765 076C                     l3933 327C                     l3757 384A  
                   l3941 3048                     l3693 3226                     l3685 31FC  
                   l3599 136C                     l2991 0CFA                     l2983 0CEA  
                   l2975 0CDA                     l2967 0CCA                     l2959 0CA2  
                   l3679 2BE6                     l2799 1DF8                     l3927 0BB8  
                   l3919 0B92                     l3863 0A48                     l3847 09D8  
                   l3855 0A0C                     l3775 0852                     l3767 0792  
                   l3935 32C8                     l3759 385C                     l3951 30A4  
                   l3943 305C                     l3695 3234                     l3687 3204  
                   l2993 0CFE                     l2985 0CEE                     l2977 0CDE  
                   l2969 0CCE                     l2897 2822                     l2889 27DA  
                   l3873 0A90                     l3881 0AA0                     l3857 0A1C  
                   l3849 09E8                     l3929 0BBC                     l3785 089A  
                   l3769 0798                     l3793 08B2                     l3953 30BC  
                   l3945 306A                     l3937 3022                     l3697 323A  
                   l3689 3216                     l3961 3556                     l2987 0CF2  
                   l2979 0CE2                     l2995 0D02                     l2899 283E  
                   l3891 0AE2                     l3867 0A68                     l3859 0A2E  
                   l3883 0AAA                     l3795 08B6                     l3779 0872  
                   l3947 3082                     l3939 3030                     l3955 38A0  
                   l3699 3250                     l3971 3592                     l3963 3566  
                   l2997 0D06                     l2989 0CF6                     l3893 0AF4  
                   l3885 0ABE                     l3877 0A98                     l3869 0A70  
                   l3797 08CA                     l3789 08A2                     l3949 3096  
                   l3965 356A                     l3957 3542                     l3981 2676  
                   l3973 25E2                     l2999 0D30                     l3895 0AFE  
                   l3887 0AC2                     l3799 08DC                     l3967 357C  
                   l3959 3552                     l3991 26D6                     l3983 268E  
                   l3975 2642                     l3889 0AD2                     l3897 0B06  
                   l3969 3580                     l3993 26DE                     l3985 26A2  
                   l3977 265A                     l3899 0B16                     l3995 26F6  
                   l3987 26AA                     l3979 266E                     l3997 270A  
                   l3989 26C2                     STR_1 063D                     STR_2 061B  
                   STR_3 062C                     STR_4 0689                     STR_5 0657  
                   STR_6 068F                     STR_7 0695                     STR_8 06B3  
                   STR_9 06B5                     u3000 0D72                     u3001 0D6E  
                   u3010 0D90                     u3011 0D8C                     u3100 0EE0  
                   u3020 0DB0                     u3101 0EDC                     u3021 0DAC  
                   u3110 0EF0                     u3030 0DBE                     u3111 0EEC  
                   u3031 0DBA                     u4000 17D4                     u3200 0FC4  
                   u3120 0F1C                     u3040 0DCE                     u4001 17D0  
                   u3201 0FC0                     u3121 0F18                     u3041 0DCA  
                   u4010 1804                     u3210 0FFE                     u3130 0F2C  
                   u3050 0E00                     u4011 1800                     u3211 0FFA  
                   u3131 0F28                     u3051 0DFC                     u4020 1832  
                   u4100 1166                     u3220 1010                     u3140 0F48  
                   u3060 0E0E                     u3300 2F1A                     u4021 182E  
                   u4101 1162                     u3221 100C                     u3141 0F44  
                   u3061 0E0A                     u3301 2F16                     u4110 12E0  
                   u4030 109C                     u3230 1020                     u3150 0F58  
                   u3070 0E2C                     u3310 2F36                     u4031 1098  
                   u3231 101C                     u3151 0F54                     u3071 0E28  
                   u3311 2F32                     u4200 1454                     u4120 133A  
                   u4040 10AE                     u3240 1040                     u3160 0F6A  
                   u3080 0E64                     u2600 1E84                     u3400 28E6  
                   u3320 2F5C                     u5000 257A                     u4201 1450  
                   u4121 1336                     u4041 10AA                     u3241 103C  
                   u3161 0F66                     u3081 0E60                     u2601 1E80  
                   u3401 28E2                     u3321 2F58                     u5001 2576  
                   u4210 148E                     u4130 135A                     u4050 10BE  
                   u3250 1052                     u3170 0F80                     u3090 0EAA  
                   u2610 1E9E                     u3330 30E4                     u5010 2598  
                   u4211 148A                     u4131 1356                     u4115 12D6  
                   u4051 10BA                     u3251 104E                     u3171 0F7C  
                   u3091 0EA6                     u2611 1E9A                     u3331 30E0  
                   u5011 2594                     u4140 136C                     u4060 10FE  
                   u3260 106E                     u3180 0F96                     u4220 2B18  
                   u3420 2936                     u3500 31F8                     u3340 30FE  
                   u4300 3234                     u5020 25A8                     u4141 1368  
                   u4061 10FA                     u3261 106A                     u3181 0F92  
                   u4221 2B14                     u3421 2932                     u3501 31F4  
                   u3341 30FA                     u4301 3230                     u5021 25A4  
                   u4150 139A                     u4070 1110                     u3190 0FAA  
                   u4230 2B4C                     u3414 2906                     u3270 2EBC  
                   u3350 3118                     u3510 3356                     u4310 3250  
                   u5030 25C6                     u4151 1396                     u4071 110C  
                   u3191 0FA6                     u3415 2900                     u3271 2EB8  
                   u3351 3114                     u3511 3352                     u4311 324C  
                   u5031 25C2                     u4160 13B0                     u4080 1120  
                   u4240 2B7A                     u4400 2426                     u4320 22A6  
                   u3520 365E                     u2720 1FEC                     u2704 1FA0  
                   u2640 1EFC                     u2624 1EB0                     u2560 1E14  
                   u3440 297C                     u3280 2ED6                     u3360 3136  
                   u5040 25D6                     u4161 13AC                     u4081 111C  
                   u4241 2B76                     u4401 2422                     u4321 22A2  
                   u3521 365A                     u2721 1FE8                     u2705 1F9C  
                   u2641 1EF8                     u2625 1EAC                     u2561 1E10  
                   u3441 2978                     u3281 2ED2                     u3361 3132  
                   u5041 25D2                     u4170 13C4                     u4090 1156  
                   u4250 2B8E                     u4410 2434                     u4330 22B4  
                   u3530 3676                     u2810 27F6                     u2730 2006  
                   u2714 1FC0                     u2650 1F16                     u2634 1ED0  
                   u2570 1E26                     u3434 294E                     u3290 2EFC  
                   u3370 314C                     u4171 13C0                     u4091 1152  
                   u4251 2B8A                     u4235 2B42                     u4411 2430  
                   u4331 22B0                     u3531 3672                     u2811 27F2  
                   u2731 2002                     u2715 1FBC                     u2651 1F12  
                   u2635 1ECC                     u2571 1E22                     u3435 2948  
                   u3291 2EF8                     u3371 3148                     u3700 223A  
                   u3620 214A                     u3604 20FA                     u3540 2062  
                   u4180 13DE                     u2900 0BFE                     u4260 2BB6  
                   u4340 2310                     u2804 27C4                     u3460 29CA  
                   u3380 3170                     u4500 0948                     u4420 3840  
                   u3701 2236                     u3621 2146                     u3605 20F6  
                   u3541 205E                     u4181 13DA                     u2901 0BFA  
                   u4261 2BB2                     u4341 230C                     u2805 27C0  
                   u3461 29C6                     u3381 316C                     u4501 0944  
                   u4421 383C                     u3710 224C                     u3630 215C  
                   u3614 211E                     u3550 2074                     u4190 1426  
                   u2910 0C40                     u4270 2BD6                     u4350 2366  
                   u2830 283E                     u3470 29EC                     u3454 2998  
                   u3390 3642                     u4510 0974                     u4430 385C  
                   u3711 2248                     u3631 2158                     u3615 211A  
                   u3551 2070                     u4191 1422                     u2911 0C3C  
                   u4271 2BD2                     u4351 2362                     u2831 283A  
                   u3471 29E8                     u3455 2992                     u3391 363E  
                   u4511 0970                     u4431 3858                     u3800 14C6  
                   u2920 0C56                     u4280 2BE6                     u4360 23B0  
                   u2824 280C                     u2744 2018                     u2680 1F74  
                   u2664 1F28                     u2584 1E38                     u2760 36DC  
                   u4600 0AD2                     u4520 099C                     u4440 0792  
                   u3801 14C2                     u2921 0C52                     u4281 2BE2  
                   u4361 23AC                     u2825 2808                     u2745 2014  
                   u2681 1F70                     u2665 1F24                     u2585 1E34  
                   u2761 36D8                     u4601 0ACE                     u4521 0998  
                   u4441 078E                     u3810 14D8                     u2930 0C68  
                   u4370 23CE                     u2850 2886                     u2770 276A  
                   u2754 2038                     u2690 1F8E                     u2674 1F48  
                   u2594 1E58                     u3490 31C4                     u4610 0AE2  
                   u4530 09C4                     u4450 086E                     u4290 3216  
                   u3811 14D4                     u2931 0C64                     u4371 23CA  
                   u2851 2882                     u2771 2766                     u2755 2034  
                   u2691 1F8A                     u2675 1F44                     u2595 1E54  
                   u3491 31C0                     u4611 0ADE                     u4531 09C0  
                   u4451 086A                     u4291 3212                     u3724 2262  
                   u3660 21C2                     u3644 2172                     u3580 20D2  
                   u3564 2086                     u3900 1690                     u3820 14E8  
                   u2940 0C78                     u4380 23DE                     u2844 2854  
                   u3484 31A2                     u4620 0B16                     u4540 09D8  
                   u4460 0896                     u3740 2A08                     u4700 3552  
                   u3725 225E                     u3661 21BE                     u3645 216E  
                   u3581 20CE                     u3565 2082                     u3901 168C  
                   u3821 14E4                     u2941 0C74                     u4381 23DA  
                   u2845 2850                     u3485 319C                     u4621 0B12  
                   u4541 09D4                     u4461 0892                     u3741 2A04  
                   u4701 354E                     u3734 2286                     u3670 21D4  
                   u3654 2196                     u3590 20E4                     u3574 20A6  
                   u3910 16B4                     u3830 152C                     u2950 0CB4  
                   u4390 23EC                     u2790 27AE                     u2870 3936  
                   u4630 0B5E                     u4550 09E8                     u4470 08CA  
                   u3750 2A2A                     u4710 3566                     u3735 2282  
                   u3671 21D0                     u3655 2192                     u3591 20E0  
                   u3575 20A2                     u3911 16B0                     u3831 1528  
                   u2951 0CB0                     u4391 23E8                     u2791 27AA  
                   u2871 3932                     u4631 0B5A                     u4551 09E4  
                   u4471 08C6                     u3751 2A26                     u4711 3562  
                   u3920 16CA                     u3840 153E                     u2960 0CC2  
                   u2880 0BDC                     u2864 289C                     u2784 277C  
                   u4640 0B86                     u4560 0A1C                     u4480 08F8  
                   u4800 2EA8                     u3760 2A64                     u4720 357C  
                   u3921 16C6                     u3841 153A                     u2961 0CBE  
                   u2881 0BD8                     u2865 2898                     u2785 2778  
                   u4641 0B82                     u4561 0A18                     u4481 08F4  
                   u4801 2EA4                     u3761 2A60                     u4721 3578  
                   u3930 16E8                     u3850 154E                     u2970 0D30  
                   u2890 0BEE                     u4650 0BB8                     u4570 0A64  
                   u4490 0920                     u4810 2DC0                     u3770 2A86  
                   u4730 3592                     u3931 16E4                     u3851 154A  
                   u2971 0D2C                     u2891 0BEA                     u4651 0BB4  
                   u4571 0A60                     u4491 091C                     u4811 2DBC  
                   u3771 2A82                     u4731 358E                     u3684 21EA  
                   u3940 1708                     u3860 158E                     u2980 0D48  
                   u4580 0A8C                     u4660 32E2                     u4740 2C36  
                   u4820 2DE0                     u3780 2AAE                     u4900 1CB4  
                   u3685 21E6                     u3941 1704                     u3861 158A  
                   u2981 0D42                     u4581 0A88                     u4661 32DE  
                   u4741 2C32                     u4821 2DDC                     u3781 2AAA  
                   u4901 1CB0                     u3694 220E                     u3950 171A  
                   u3870 15CE                     u2990 0D4A                     u4590 0ABE  
                   u4750 2C74                     u4670 3030                     u4830 1976  
                   u3790 2AE0                     u4910 1D68                     u3695 220A  
                   u3951 1716                     u3871 15CA                     u4591 0ABA  
                   u4751 2C70                     u4671 302C                     u4831 1972  
                   u3791 2ADC                     u4911 1D64                     u3960 1748  
                   u3880 1644                     u4760 2C92                     u4680 306A  
                   u4840 1A0C                     u4920 1DD0                     u3961 1744  
                   u3881 1640                     u4761 2C8E                     u4681 3066  
                   u4841 1A08                     u4921 1DCC                     u3970 175E  
                   u3890 1666                     u4770 2CB2                     u4690 30A4  
                   u4850 1AB2                     u4930 1DF0                     u3971 175A  
                   u3891 1662                     u4771 2CAE                     u4691 30A0  
                   u4851 1AAE                     u4931 1DEC                     u3980 1772  
                   u4780 2D02                     u4860 1B48                     u4940 24B4  
                   u3981 176E                     u4781 2CFE                     u4861 1B44  
                   u4941 24B0                     u3990 178C                     u4790 2E04  
                   u4870 1B76                     u4950 24DC                     u3991 1788  
                   u4791 2E00                     u4871 1B72                     u4951 24D8  
                   u4880 1C2C                     u4960 24FC                     u4881 1C28  
                   u4961 24F8                     u4890 1C94                     u4970 2518  
                   u4891 1C90                     u4971 2514                     u4980 252E  
                   u4981 252A                     u4990 254C                     u4991 2548  
          comandos@i_190 0090            comandos@i_194 0094            comandos@i_188 008C  
          comandos@i_198 0098            comandos@j_191 0092            comandos@j_195 0096  
          comandos@j_189 008E            comandos@j_199 009A                     _buff 007B  
                   _conf 007F                     _main 2448                     _keys 00A0  
                   _pot1 00A4         ??_PulseClockData 0007                     indf1 000FE7  
                   indf2 000FDF                     fsr1l 000FE1                     fsr2l 000FD9  
__size_of_infoIndividual 0320                     prodh 000FF4                     prodl 000FF3  
                   start 0000          ___fldiv@new_exp 0020          pushNibble@value 000C  
         ??_configuraPSI 0067             ___param_bank 000000   __end_of_pulseEnablePin 37B2  
         pwmSet@porcento 000A            ___fltol@sign1 0061          __end_of___aldiv 2B02  
        __end_of___fladd 1082                    ?_main 0001          __end_of_adcInit 372A  
        __end_of___fldiv 1846          __end_of_adcRead 3694          __end_of___awdiv 2F6E  
                  STR_10 064E                    STR_11 06AE                    STR_20 069E  
                  STR_12 0682                    STR_13 06AA                    STR_21 066A  
                  STR_22 06A6                    STR_14 065A                    STR_15 06B1  
                  STR_23 067A                    STR_16 069A                    STR_17 0662  
                  STR_18 06A2                    STR_19 0672          __end_of___awmod 3182  
        __end_of___flmul 14AC          __end_of___flsub 3770          __end_of___fltol 2C08  
        ___awdiv@divisor 0003                    _T2CON 000FCA          __end_of___lwdiv 3270  
        ___awdiv@counter 0005                    _PORTA 000F80                    _PORTB 000F81  
                  _PORTC 000F82                    _PORTD 000F83                    _PORTE 000F84  
        __end_of_charKey 061B                    _TRISA 000F92                    _TRISB 000F93  
                  _TRISC 000F94                    _TRISD 000F95                    _TRISE 000F96  
        __end_of_lcdChar 3A1C          __end_of_lcdInit 3022                    _block 0079  
        __end_of_rgbInit 37F0                    _tecla 007D          __end_of_pinMode 2294  
                  _valor 0601                    _teste 3868                    main@i 006C  
                  main@j 006E          __end_of_ssdHeat 1DF8          __end_of_soWrite 36E2  
                  tablat 000FF5          __end_of_ssdInit 35EE          __end_of_pwmInit 3A54  
                  status 000FD8             pushNibble@rs 000A     __end_of_digitalWrite 2046  
        __initialization 348C          ?_pulseEnablePin 0001             __end_of_main 25E2  
                 ??_main 006C            __activetblptr 000002     __size_of_digitalRead 016A  
     lcdNumberUnit@value 000F                   _ADCON0 000FC2                   _ADCON1 000FC1  
                 _ADCON2 000FC0                   _ADRESH 000FC4                   _ADRESL 000FC3  
                 _CCPR2L 000FBB         ___awdiv@dividend 0001                   ?_teste 0001  
            rgbColor@led 0007     __size_of_lcdPosition 003A         __end_of___xxtofl 2448  
       __end_of_comandos 0BC2                   ___flge 2C08                ??___aldiv 0009  
              ??___fladd 0030                   ___wmul 398C                ??_adcInit 0007  
              ??___fldiv 0017                ??_adcRead 0003                ??___awdiv 0005  
              ??___awmod 000D                ??___flmul 0040                ??___flsub 0059  
              ??___fltol 005D         __end_of_infoTemp 3428                ??___lwdiv 0005  
                 _kpInit 38D6         __end_of_rgbColor 30D2                   clear_0 34CA  
                 clear_1 34D6                   _soInit 37F0         ___awdiv@quotient 0007  
        ___awmod@divisor 000B                   _tblock 0076                ??_lcdChar 000E  
                 isa$std 000001                ??_lcdInit 000F                   _pwmSet 3358  
        ___awmod@counter 000D                ??_rgbInit 0007         __end_of_ssdDigit 3598  
           __pdataCOMRAM 007E                ??_pinMode 0005             __mediumconst 0000  
                 tblptrh 000FF7                ??_ssdHeat 0063                   tblptrl 000FF6  
                 tblptru 000FF8                ??_soWrite 0009                ??_ssdInit 0007  
              ??_pwmInit 0011         __end_of_pushByte 3540     __end_of_configuraPSI 2EAA  
             ___flge@ff1 0051               ___flge@ff2 0055             ___xxtofl@arg 000B  
           ___xxtofl@exp 000A             ___xxtofl@val 0001               __accesstop 0080  
__end_of__initialization 34DC           _infoIndividual 1846            ___rparam_used 000001  
          pushByte@value 000D               ___fltol@f1 0059              pinMode@type 0003  
         __pcstackCOMRAM 0001             __pidataBANK0 3A54            __end_of_valor 0611  
          __end_of_teste 38A0       __size_of_delayMili 0030       __size_of_lcdNumber 0074  
     __size_of_lcdString 0056       __size_of_kpReadKey 007A                  ??_teste 0001  
 __end_of_infoIndividual 1B66               __pbssBANK0 009C            ?_instrucaoLCD 0001  
     __size_of_infoGeral 0036       __size_of_infoPress 0064    __size_of_digitalWrite 024E  
             _delayMicro 3A62                  ?___flge 0051               _lcdCommand 3A1C  
                ?___wmul 0001                  ?_kpInit 0001                  _CCP2CON 000FBA  
                ?_soInit 0001               _kpDebounce 28B8    __end_of_lcdNumberUnit 32E4  
                ?_pwmSet 0001       __size_of_ssdUpdate 016C                ?___xxtofl 0001  
           _digitalWrite 1DF8                ?_comandos 0001           ??_instrucaoLCD 0015  
        ?_infoIndividual 0001                ?_infoTemp 0001        __end_of_delayMili 3938  
              ?_rgbColor 0007         ??_pulseEnablePin 0007            instrucaoLCD@i 0015  
          instrucaoLCD@j 0017                  __Hparam 0000        __end_of_lcdNumber 3358  
                __Lparam 0000                ?_ssdDigit 0001        __end_of_lcdString 3644  
        kpDebounce@tempo 0075                  ___aldiv 29F6        __end_of_kpReadKey 31FC  
        __size_of___flge 0104                  ___fladd 0BC2                  _adcInit 36E2  
                ___fldiv 14AC                  _adcRead 3644                  ___awdiv 2EAA  
                ___awmod 30D2                  ___flmul 1082                  ___flsub 372A  
                ___fltol 2B02                ?_pushByte 000A          __size_of___wmul 0026  
                ___lwdiv 31FC             __psmallconst 0600          __size_of_kpInit 0032  
                _charKey 0611              ssdDigit@val 0002              ssdDigit@pos 0001  
      __end_of_infoGeral 38D6                  __pcinit 348C                  _lcdChar 39FE  
                __ramtop 0600          __size_of_soInit 003E                  _lcdInit 2F6E  
      __end_of_infoPress 348C                  __ptext0 2448                  __ptext1 3868  
                __ptext2 3598                  __ptext3 1B66                  __ptext4 25E2  
                __ptext5 3540                  __ptext6 3358                  __ptext7 398C  
                __ptext8 31FC                  __ptext9 37B2          __size_of_pwmSet 006C  
                _display 0074    __size_of_configuraPSI 00C8                  _rgbInit 37B2  
             ??___xxtofl 0005                  _pinMode 2046         ___awmod@dividend 0009  
       ___aldiv@dividend 0001                  _ssdHeat 1B66               delayMili@a 0001  
             delayMili@i 0004                  _soWrite 3694                  _ssdInit 3598  
                _pwmInit 3A3A             _comandos$192 0080             _comandos$193 0082  
           _comandos$196 0084             _comandos$197 0086               ??_comandos 0067  
   end_of_initialization 34DC            ?_PulseEnClock 0001               ??_infoTemp 0067  
             ??_rgbColor 0009            __Lmediumconst 0000           digitalRead@pin 0001  
          ?_pwmFrequency 000F              ?_delayMicro 0001        __end_of_ssdUpdate 274E  
             ??_ssdDigit 0002         ___aldiv@quotient 000B                  postdec1 000FE5  
            ?_lcdCommand 0001             _configuraPSI 2DE2                  postinc0 000FEE  
                postinc2 000FDE               ??_pushByte 000C  __size_of_PulseClockData 002A  
          ??_digitalRead 0003              ?_kpDebounce 0001               lcdNumber@i 0065  
            ___fladd@grs 0037            ___xxtofl@sign 0009               _pushNibble 39D8  
             lcdString@i 0013              ___fldiv@grs 0022              ___fldiv@rem 001B  
          ??_lcdPosition 0013           ??_PulseEnClock 0007              ___flmul@grs 0045  
         ??_pwmFrequency 0011               kpReadKey@i 0004           __end_of___flge 2D0C  
         adcRead@ADvalor 0003     __end_of_instrucaoLCD 2DE2           __end_of___wmul 39B2  
          __pidataCOMRAM 3A60           __end_of_kpInit 3908           __end_of_soInit 382E  
         __end_of_pwmSet 33C4      __size_of_delayMicro 0002      start_initialization 348C  
    __end_of_digitalRead 28B8      __size_of_lcdCommand 001E      __size_of_kpDebounce 013E  
    __end_of_lcdPosition 3868           adcRead@channel 0001        kpDebounce@oldRead 009C  
      kpDebounce@newRead 009E                 ??___flge 0059                 ??___wmul 0005  
               ??_kpInit 0007              __pdataBANK0 00A8                 ??_soInit 0007  
               ??_pwmSet 0008                ___fladd@a 002C                ___fladd@b 0028  
              ___fldiv@a 0013                ___fldiv@b 000F                ___flmul@a 003C  
              ___flmul@b 0038              __pbssCOMRAM 0070                ___flsub@a 0055  
              ___flsub@b 0051         ??_infoIndividual 0067            __pcstackBANK0 0080  
            ?_pushNibble 000A               pinMode@pin 0001        __size_of___xxtofl 01B4  
      __size_of_comandos 050A        __size_of_infoTemp 0064        __size_of_rgbColor 00B0  
              _delayMili 3908         ___lwdiv@dividend 0001                 ?___aldiv 0001  
               ?___fladd 0028                 ?_adcInit 0001                 ?___fldiv 000F  
               ?_adcRead 0001                 ?___awdiv 0001                 ?___awmod 0009  
               ?___flmul 0038                 ?___flsub 0051                 ?___fltol 0059  
      __size_of_ssdDigit 0058           _PulseClockData 3962                _lcdNumber 32E4  
               ?___lwdiv 0001     __end_of_PulseEnClock 3962                _lcdString 35EE  
            _digitalRead 274E                 ?_lcdChar 0001        __size_of_pushByte 005A  
               ?_lcdInit 0001                _kpReadKey 3182     __end_of_pwmFrequency 39D8  
            __smallconst 0600                 ?_rgbInit 0001                _infoGeral 38A0  
               ?_pinMode 0001                _infoPress 3428                 ?_ssdHeat 0001  
               ?_soWrite 0007                 ?_ssdInit 0001                 ?_pwmInit 0001  
       ___lwdiv@quotient 0005           __size_of_teste 0038              _lcdPosition 382E  
       pwmFrequency@freq 000F          ___aldiv@divisor 0005          ___aldiv@counter 0009  
         ___wmul@product 0005   __size_of_lcdNumberUnit 0074             ??_delayMicro 0003  
             ?_delayMili 0001    __size_of_instrucaoLCD 00D6   __end_of_PulseClockData 398C  
    __size_of_pushNibble 0026             ??_lcdCommand 000E                _ssdUpdate 25E2  
             ?_lcdNumber 0063               ?_lcdString 000F             ??_kpDebounce 000A  
             ?_kpReadKey 0001                comandos@i 0088                comandos@j 008A  
      ___wmul@multiplier 0001          lcdCommand@value 000E               ?_infoGeral 0001  
             ?_infoPress 0001       __end_of_delayMicro 3A64                copy_data0 34A0  
     __end_of_lcdCommand 3A3A             _instrucaoLCD 2D0C               pushByte@rs 000A  
           lcdChar@value 000E       __end_of_kpDebounce 29F6                 __Hrparam 0000  
               __Lrparam 0000          lcdPosition@line 000F          ?_PulseClockData 0001  
             ?_ssdUpdate 0001         __size_of___aldiv 010C         __size_of___fladd 04C0  
       __size_of_adcInit 0048         __size_of___fldiv 039A         __size_of_adcRead 0050  
       __size_of___awdiv 00C4         __size_of___awmod 00B0         __size_of___flmul 042A  
       __size_of___flsub 0046         __size_of___fltol 0106  __size_of_pulseEnablePin 0042  
         lcdNumber@value 0063         __size_of___lwdiv 0074             ssdHeat@i_220 0068  
           ssdHeat@j_221 006A            _lcdNumberUnit 3270         __size_of_lcdChar 001E  
         lcdNumberUnit@i 0011         __size_of_lcdInit 00B4                 ___xxtofl 2294  
       __size_of_rgbInit 003E         __size_of_pinMode 024E          ___lwdiv@divisor 0003  
        ___lwdiv@counter 0007                 __ptext10 3A3A                 __ptext11 39B2  
               __ptext20 38A0                 __ptext12 29F6                 __ptext21 1846  
               __ptext13 2F6E                 __ptext30 39FE                 __ptext22 3022  
               __ptext14 39D8                 __ptext31 30D2                 __ptext23 2C08  
               __ptext15 38D6                 __ptext40 3694                 __ptext32 2EAA  
               __ptext24 2DE2                 __ptext16 37F0                 __ptext41 3938  
               __ptext33 3A1C                 __ptext25 382E                 __ptext17 2D0C  
               __ptext50 1082                 __ptext42 3962                 __ptext34 34E6  
               __ptext26 3270                 __ptext18 33C4                 __ptext51 14AC  
               __ptext43 1DF8                 __ptext35 3770                 __ptext27 06B8  
               __ptext19 3428                 __ptext52 36E2                 __ptext44 274E  
               __ptext36 3A62                 __ptext28 35EE                 __ptext53 2046  
               __ptext45 3644                 __ptext37 3908                 __ptext29 32E4  
               __ptext46 2294                 __ptext38 3182                 __ptext47 2B02  
               __ptext39 28B8                 __ptext48 372A                 __ptext49 0BC2  
       __size_of_ssdHeat 0292         __size_of_soWrite 004E         __size_of_ssdInit 0056  
       __size_of_pwmInit 001A                 _comandos 06B8                 _infoTemp 33C4  
               _rgbColor 3022            __size_of_main 019A              ??_delayMili 0003  
  __size_of_PulseEnClock 002A                 _ssdDigit 3540              delayMicro@a 0001  
               isa$xinst 000000             soWrite@value 0007    __size_of_pwmFrequency 0026  
               _pushByte 34E6              ??_lcdNumber 0065                pwmSet@val 000B  
            ??_lcdString 0011           ?_lcdNumberUnit 000F              ??_kpReadKey 0001  
            ??_infoGeral 0009              ??_infoPress 0067             ??_pushNibble 000C  
         lcdPosition@col 0011            ?_digitalWrite 0001             _PulseEnClock 3938  
      digitalWrite@value 0003             _pwmFrequency 39B2                 ssdHeat@i 0064  
               ssdHeat@j 0066                 soWrite@i 0009              ??_ssdUpdate 000A  
     __end_of_pushNibble 39FE             ?_digitalRead 0001              kpDebounce@i 000D  
         ??_digitalWrite 0005             ___aldiv@sign 000A            ___fladd@signs 0034  
           ?_lcdPosition 000F          digitalWrite@pin 0001             ___fladd@aexp 0035  
           ___fladd@bexp 0036  
